ccopy_reg
_reconstructor
p0
(crequests.models
Response
p1
c__builtin__
object
p2
Ntp3
Rp4
(dp5
S'cookies'
p6
g0
(crequests.cookies
RequestsCookieJar
p7
g2
Ntp8
Rp9
(dp10
S'_now'
p11
I1499712485
sS'_policy'
p12
(icookielib
DefaultCookiePolicy
p13
(dp14
S'strict_rfc2965_unverifiable'
p15
I01
sS'strict_ns_domain'
p16
I0
sS'_allowed_domains'
p17
NsS'rfc2109_as_netscape'
p18
NsS'rfc2965'
p19
I00
sS'strict_domain'
p20
I00
sg11
I1499712485
sS'strict_ns_set_path'
p21
I00
sS'strict_ns_unverifiable'
p22
I00
sS'strict_ns_set_initial_dollar'
p23
I00
sS'hide_cookie2'
p24
I00
sS'_blocked_domains'
p25
(tsS'netscape'
p26
I01
sbsS'_cookies'
p27
(dp28
sbsS'_content'
p29
S'[{"tmsId":"MV009294790000","rootId":"13259415","subType":"Feature Film","title":"Baby Driver","releaseYear":2017,"releaseDate":"2017-03-11","titleLang":"en","descriptionLang":"en","entityType":"Movie","genres":["Action","Thriller","Comedy"],"longDescription":"Talented getaway driver Baby (Ansel Elgort) relies on the beat of his personal soundtrack to be the best in the game. After meeting the woman (Lily James) of his dreams, he sees a chance to ditch his shady lifestyle and make a clean break. Coerced into working for a crime boss (Kevin Spacey), Baby must face the music as a doomed heist threatens his life, love and freedom.","shortDescription":"A young getaway driver must face the music when a doomed heist threatens his life, love and freedom.","topCast":["Ansel Elgort","Kevin Spacey","Lily James"],"directors":["Edgar Wright"],"officialUrl":"http://www.babydriver-movie.com/","ratings":[{"body":"Motion Picture Association of America","code":"R"}],"advisories":["Adult Language","Adult Situations","Graphic Violence"],"runTime":"PT01H53M","preferredImage":{"width":"240","height":"360","uri":"assets/p13259415_v_v5_ab.jpg","category":"VOD Art","text":"yes","primary":"true"},"showtimes":[{"theatre":{"id":"9489","name":"Alamo Drafthouse at the Ritz"},"dateTime":"2017-07-10T18:40","barg":false,"ticketURI":"http://www.fandango.com/tms.asp?t=AAUQP&m=166105&d=2017-07-10"},{"theatre":{"id":"9489","name":"Alamo Drafthouse at the Ritz"},"dateTime":"2017-07-10T22:40","barg":false,"ticketURI":"http://www.fandango.com/tms.asp?t=AAUQP&m=166105&d=2017-07-10"},{"theatre":{"id":"10420","name":"Violet Crown Cinema"},"dateTime":"2017-07-10T11:20","barg":false},{"theatre":{"id":"10420","name":"Violet Crown Cinema"},"dateTime":"2017-07-10T13:45","barg":false},{"theatre":{"id":"10420","name":"Violet Crown Cinema"},"dateTime":"2017-07-10T16:40","barg":false},{"theatre":{"id":"10420","name":"Violet Crown Cinema"},"dateTime":"2017-07-10T18:10","barg":false},{"theatre":{"id":"10420","name":"Violet Crown Cinema"},"dateTime":"2017-07-10T20:35","barg":false},{"theatre":{"id":"11470","name":"Alamo Drafthouse Mueller"},"dateTime":"2017-07-10T11:35","quals":"A.M.","barg":false,"ticketURI":"http://www.fandango.com/tms.asp?t=AAYBF&m=166105&d=2017-07-10"},{"theatre":{"id":"11470","name":"Alamo Drafthouse Mueller"},"dateTime":"2017-07-10T14:50","barg":false,"ticketURI":"http://www.fandango.com/tms.asp?t=AAYBF&m=166105&d=2017-07-10"},{"theatre":{"id":"11470","name":"Alamo Drafthouse Mueller"},"dateTime":"2017-07-10T17:30","barg":false,"ticketURI":"http://www.fandango.com/tms.asp?t=AAYBF&m=166105&d=2017-07-10"},{"theatre":{"id":"11470","name":"Alamo Drafthouse Mueller"},"dateTime":"2017-07-10T20:30","barg":false,"ticketURI":"http://www.fandango.com/tms.asp?t=AAYBF&m=166105&d=2017-07-10"},{"theatre":{"id":"11470","name":"Alamo Drafthouse Mueller"},"dateTime":"2017-07-10T23:30","barg":false,"ticketURI":"http://www.fandango.com/tms.asp?t=AAYBF&m=166105&d=2017-07-10"},{"theatre":{"id":"8298","name":"Regal Westgate Stadium 11"},"dateTime":"2017-07-10T10:30","quals":"Descriptive Video Services|Closed Captioned","barg":true,"ticketURI":"http://www.fandango.com/tms.asp?t=AANOT&m=166105&d=2017-07-10"},{"theatre":{"id":"8298","name":"Regal Westgate Stadium 11"},"dateTime":"2017-07-10T13:10","quals":"Descriptive Video Services|Closed Captioned","barg":true,"ticketURI":"http://www.fandango.com/tms.asp?t=AANOT&m=166105&d=2017-07-10"},{"theatre":{"id":"8298","name":"Regal Westgate Stadium 11"},"dateTime":"2017-07-10T15:30","quals":"Descriptive Video Services|Closed Captioned","barg":true,"ticketURI":"http://www.fandango.com/tms.asp?t=AANOT&m=166105&d=2017-07-10"},{"theatre":{"id":"8298","name":"Regal Westgate Stadium 11"},"dateTime":"2017-07-10T19:00","quals":"Descriptive Video Services|Closed Captioned","barg":false,"ticketURI":"http://www.fandango.com/tms.asp?t=AANOT&m=166105&d=2017-07-10"},{"theatre":{"id":"8298","name":"Regal Westgate Stadium 11"},"dateTime":"2017-07-10T21:45","quals":"Descriptive Video Services|Closed Captioned","barg":false,"ticketURI":"http://www.fandango.com/tms.asp?t=AANOT&m=166105&d=2017-07-10"},{"theatre":{"id":"5320","name":"AMC Barton Creek Square 14"},"dateTime":"2017-07-10T10:10","quals":"Recliners|Reserved Seating|Descriptive Video Services|Closed Captioned","barg":false,"ticketURI":"http://www.fandango.com/tms.asp?t=AANCC&m=166105&d=2017-07-10"},{"theatre":{"id":"5320","name":"AMC Barton Creek Square 14"},"dateTime":"2017-07-10T13:10","quals":"Recliners|Reserved Seating|Descriptive Video Services|Closed Captioned","barg":false,"ticketURI":"http://www.fandango.com/tms.asp?t=AANCC&m=166105&d=2017-07-10"},{"theatre":{"id":"5320","name":"AMC Barton Creek Square 14"},"dateTime":"2017-07-10T16:10","quals":"Recliners|Reserved Seating|Descriptive Video Services|Closed Captioned","barg":false,"ticketURI":"http://www.fandango.com/tms.asp?t=AANCC&m=166105&d=2017-07-10"},{"theatre":{"id":"5320","name":"AMC Barton Creek Square 14"},"dateTime":"2017-07-10T19:20","quals":"Recliners|Reserved Seating|Descriptive Video Services|Closed Captioned","barg":false,"ticketURI":"http://www.fandango.com/tms.asp?t=AANCC&m=166105&d=2017-07-10"},{"theatre":{"id":"5320","name":"AMC Barton Creek Square 14"},"dateTime":"2017-07-10T22:05","quals":"Recliners|Reserved Seating|Descriptive Video Services|Closed Captioned","barg":false,"ticketURI":"http://www.fandango.com/tms.asp?t=AANCC&m=166105&d=2017-07-10"},{"theatre":{"id":"8749","name":"Galaxy Highland"},"dateTime":"2017-07-10T12:45","quals":"Closed Captioned|Hearing Impaired|Descriptive Audio Services","barg":false},{"theatre":{"id":"8749","name":"Galaxy Highland"},"dateTime":"2017-07-10T15:45","quals":"Closed Captioned|Hearing Impaired|Descriptive Audio Services","barg":false},{"theatre":{"id":"8749","name":"Galaxy Highland"},"dateTime":"2017-07-10T18:50","quals":"Closed Captioned|Hearing Impaired|Descriptive Audio Services","barg":false},{"theatre":{"id":"8749","name":"Galaxy Highland"},"dateTime":"2017-07-10T21:35","quals":"Closed Captioned|Hearing Impaired|Descriptive Audio Services","barg":false}]},{"tmsId":"MV008029970000","rootId":"12126545","subType":"Feature Film","title":"War for the Planet of the Apes","releaseYear":2017,"releaseDate":"2017-07-14","titleLang":"en","descriptionLang":"en","entityType":"Movie","genres":["Science fiction","Action","Adventure"],"longDescription":"Caesar (Andy Serkis) and his apes are forced into a deadly conflict with an army of humans led by a ruthless colonel (Woody Harrelson). After the apes suffer unimaginable losses, Caesar wrestles with his darker instincts and begins his own mythic quest to avenge his kind. As the journey finally brings them face to face, Caesar and the colonel are pitted against each other in an epic battle that will determine the fate of both of their species and the future of the planet.","shortDescription":"A colonel leads his troops in a deadly battle against Caesar and his army of intelligent apes.","topCast":["Andy Serkis","Woody Harrelson","Steve Zahn"],"directors":["Matt Reeves"],"officialUrl":"http://www.foxmovies.com/movies/war-for-the-planet-of-the-apes","ratings":[{"body":"Motion Picture Association of America","code":"PG-13"}],"advisories":["Adult Situations","Violence"],"runTime":"PT02H22M","preferredImage":{"width":"240","height":"360","uri":"assets/p12126545_v_v5_aa.jpg","category":"VOD Art","text":"yes","primary":"true"},"showtimes":[{"theatre":{"id":"9489","name":"Alamo Drafthouse at the Ritz"},"dateTime":"2017-07-10T19:00","barg":false,"ticketURI":"http://www.fandango.com/tms.asp?t=AAUQP&m=154458&d=2017-07-10"}]},{"tmsId":"MV000146090000","rootId":"7289","subType":"Feature Film","title":"One Flew Over the Cuckoo\'s Nest","releaseYear":1975,"releaseDate":"1975-11-19","titleLang":"en","descriptionLang":"en","entityType":"Movie","genres":["Drama"],"longDescription":"When Randle Patrick McMurphy (Jack Nicholson) gets transferred for evaluation from a prison farm to a mental institution, he assumes it will be a less restrictive environment. But the martinet Nurse Ratched (Louise Fletcher) runs the psychiatric ward with an iron fist, keeping her patients cowed through abuse, medication and sessions of electroconvulsive therapy. The battle of wills between the rebellious McMurphy and the inflexible Ratched soon affects all the ward\'s patients.","shortDescription":"Ken Kesey\'s misfit (Jack Nicholson) inspires fellow mental patients.","topCast":["Jack Nicholson","Louise Fletcher","Brad Dourif"],"directors":["Milos Forman"],"qualityRating":{"ratingsBody":"TMS","value":"4"},"ratings":[{"body":"Motion Picture Association of America","code":"R"}],"advisories":["Adult Language","Adult Situations"],"runTime":"PT02H13M","preferredImage":{"width":"240","height":"360","uri":"assets/p7289_v_v5_ad.jpg","category":"VOD Art","text":"yes","primary":"true"},"showtimes":[{"theatre":{"id":"9489","name":"Alamo Drafthouse at the Ritz"},"dateTime":"2017-07-10T21:30","barg":false,"ticketURI":"http://www.fandango.com/tms.asp?t=AAUQP&m=42126&d=2017-07-10"}]},{"tmsId":"MV009807850000","rootId":"13816071","subType":"Feature Film","title":"The Beguiled","releaseYear":2017,"releaseDate":"2017-05-24","titleLang":"en","descriptionLang":"en","entityType":"Movie","genres":["Thriller","Historical drama"],"longDescription":"Cpl. John McBurney is an injured Union soldier who finds himself on the run as a deserter during the Civil War. He seeks refuge at an all-female Southern boarding school where the teachers and students seem more than willing to help. Soon, sexual tensions lead to dangerous rivalries as the women tend to his wounded leg while offering him comfort and companionship.","shortDescription":"Tensions and rivalries rise when an injured Union deserter arrives at an all-female Southern school.","topCast":["Colin Farrell","Nicole Kidman","Kirsten Dunst"],"directors":["Sofia Coppola"],"officialUrl":"http://www.focusfeatures.com/thebeguiled","qualityRating":{"ratingsBody":"TMS","value":"3"},"ratings":[{"body":"Motion Picture Association of America","code":"R"}],"advisories":["Adult Language","Adult Situations","Violence"],"runTime":"PT01H34M","preferredImage":{"width":"240","height":"360","caption":{"content":"The Beguiled (2017)","lang":"en"},"uri":"assets/p13816071_p_v5_ab.jpg","category":"Poster Art","text":"yes","primary":"true"},"showtimes":[{"theatre":{"id":"10420","name":"Violet Crown Cinema"},"dateTime":"2017-07-10T10:50","barg":false},{"theatre":{"id":"10420","name":"Violet Crown Cinema"},"dateTime":"2017-07-10T12:45","barg":false},{"theatre":{"id":"10420","name":"Violet Crown Cinema"},"dateTime":"2017-07-10T14:45","barg":false},{"theatre":{"id":"10420","name":"Violet Crown Cinema"},"dateTime":"2017-07-10T16:10","barg":false},{"theatre":{"id":"10420","name":"Violet Crown Cinema"},"dateTime":"2017-07-10T21:25","barg":false},{"theatre":{"id":"5084","name":"Alamo Drafthouse South Lamar"},"dateTime":"2017-07-10T11:50","barg":false,"ticketURI":"http://www.fandango.com/tms.asp?t=AATHS&m=171076&d=2017-07-10"},{"theatre":{"id":"5084","name":"Alamo Drafthouse South Lamar"},"dateTime":"2017-07-10T14:25","barg":false,"ticketURI":"http://www.fandango.com/tms.asp?t=AATHS&m=171076&d=2017-07-10"},{"theatre":{"id":"5084","name":"Alamo Drafthouse South Lamar"},"dateTime":"2017-07-10T17:00","barg":false,"ticketURI":"http://www.fandango.com/tms.asp?t=AATHS&m=171076&d=2017-07-10"},{"theatre":{"id":"5084","name":"Alamo Drafthouse South Lamar"},"dateTime":"2017-07-10T19:45","barg":false,"ticketURI":"http://www.fandango.com/tms.asp?t=AATHS&m=171076&d=2017-07-10"},{"theatre":{"id":"5084","name":"Alamo Drafthouse South Lamar"},"dateTime":"2017-07-10T22:05","barg":false,"ticketURI":"http://www.fandango.com/tms.asp?t=AATHS&m=171076&d=2017-07-10"},{"theatre":{"id":"8298","name":"Regal Westgate Stadium 11"},"dateTime":"2017-07-10T10:35","quals":"Descriptive Video Services|Closed Captioned","barg":true,"ticketURI":"http://www.fandango.com/tms.asp?t=AANOT&m=171076&d=2017-07-10"},{"theatre":{"id":"8298","name":"Regal Westgate Stadium 11"},"dateTime":"2017-07-10T13:30","quals":"Descriptive Video Services|Closed Captioned","barg":true,"ticketURI":"http://www.fandango.com/tms.asp?t=AANOT&m=171076&d=2017-07-10"},{"theatre":{"id":"8298","name":"Regal Westgate Stadium 11"},"dateTime":"2017-07-10T15:45","quals":"Descriptive Video Services|Closed Captioned","barg":true,"ticketURI":"http://www.fandango.com/tms.asp?t=AANOT&m=171076&d=2017-07-10"},{"theatre":{"id":"8298","name":"Regal Westgate Stadium 11"},"dateTime":"2017-07-10T18:00","quals":"Descriptive Video Services|Closed Captioned","barg":false,"ticketURI":"http://www.fandango.com/tms.asp?t=AANOT&m=171076&d=2017-07-10"},{"theatre":{"id":"8298","name":"Regal Westgate Stadium 11"},"dateTime":"2017-07-10T20:15","quals":"Descriptive Video Services|Closed Captioned","barg":false,"ticketURI":"http://www.fandango.com/tms.asp?t=AANOT&m=171076&d=2017-07-10"},{"theatre":{"id":"8298","name":"Regal Westgate Stadium 11"},"dateTime":"2017-07-10T22:35","quals":"Descriptive Video Services|Closed Captioned","barg":false,"ticketURI":"http://www.fandango.com/tms.asp?t=AANOT&m=171076&d=2017-07-10"},{"theatre":{"id":"5320","name":"AMC Barton Creek Square 14"},"dateTime":"2017-07-10T10:20","quals":"Recliners|Reserved Seating|AMC Independent|Descriptive Video Services|Closed Captioned","barg":false,"ticketURI":"http://www.fandango.com/tms.asp?t=AANCC&m=171076&d=2017-07-10"},{"theatre":{"id":"5320","name":"AMC Barton Creek Square 14"},"dateTime":"2017-07-10T12:40","quals":"Recliners|Reserved Seating|AMC Independent|Descriptive Video Services|Closed Captioned","barg":false,"ticketURI":"http://www.fandango.com/tms.asp?t=AANCC&m=171076&d=2017-07-10"},{"theatre":{"id":"5320","name":"AMC Barton Creek Square 14"},"dateTime":"2017-07-10T15:30","quals":"Recliners|Reserved Seating|AMC Independent|Descriptive Video Services|Closed Captioned","barg":false,"ticketURI":"http://www.fandango.com/tms.asp?t=AANCC&m=171076&d=2017-07-10"},{"theatre":{"id":"5320","name":"AMC Barton Creek Square 14"},"dateTime":"2017-07-10T18:20","quals":"Recliners|Reserved Seating|AMC Independent|Descriptive Video Services|Closed Captioned","barg":false,"ticketURI":"http://www.fandango.com/tms.asp?t=AANCC&m=171076&d=2017-07-10"},{"theatre":{"id":"5320","name":"AMC Barton Creek Square 14"},"dateTime":"2017-07-10T21:05","quals":"Recliners|Reserved Seating|AMC Independent|Descriptive Video Services|Closed Captioned","barg":false,"ticketURI":"http://www.fandango.com/tms.asp?t=AANCC&m=171076&d=2017-07-10"}]},{"tmsId":"MV009818230000","rootId":"13831327","subType":"Feature Film","title":"The Big Sick","releaseYear":2017,"releaseDate":"2017-01-20","titleLang":"en","descriptionLang":"en","entityType":"Movie","genres":["Romantic comedy"],"longDescription":"Kumail is a Pakistani comic who meets an American graduate student named Emily at one of his stand-up shows. As their relationship blossoms, he soon becomes worried about what his traditional Muslim parents will think of her. When Emily suddenly comes down with an illness that leaves her in a coma, Kumail finds himself developing a bond with her deeply concerned mother and father.","shortDescription":"A Pakistani stand-up comic develops a bond with the parents of his comatose American girlfriend.","topCast":["Kumail Nanjiani","Zoe Kazan","Holly Hunter"],"directors":["Michael Showalter"],"officialUrl":"https://www.thebigsickmovie.com/","qualityRating":{"ratingsBody":"TMS","value":"3.5"},"ratings":[{"body":"Motion Picture Association of America","code":"R"}],"advisories":["Adult Language","Adult Situations"],"runTime":"PT02H00M","preferredImage":{"width":"240","height":"360","uri":"assets/p13831327_v_v5_aa.jpg","category":"VOD Art","text":"yes","primary":"true"},"showtimes":[{"theatre":{"id":"10420","name":"Violet Crown Cinema"},"dateTime":"2017-07-10T11:00","barg":false},{"theatre":{"id":"10420","name":"Violet Crown Cinema"},"dateTime":"2017-07-10T12:00","barg":false},{"theatre":{"id":"10420","name":"Violet Crown Cinema"},"dateTime":"2017-07-10T13:30","barg":false},{"theatre":{"id":"10420","name":"Violet Crown Cinema"},"dateTime":"2017-07-10T14:30","barg":false},{"theatre":{"id":"10420","name":"Violet Crown Cinema"},"dateTime":"2017-07-10T16:00","barg":false},{"theatre":{"id":"10420","name":"Violet Crown Cinema"},"dateTime":"2017-07-10T17:00","barg":false},{"theatre":{"id":"10420","name":"Violet Crown Cinema"},"dateTime":"2017-07-10T18:30","barg":false},{"theatre":{"id":"10420","name":"Violet Crown Cinema"},"dateTime":"2017-07-10T19:30","barg":false},{"theatre":{"id":"10420","name":"Violet Crown Cinema"},"dateTime":"2017-07-10T21:00","barg":false},{"theatre":{"id":"10420","name":"Violet Crown Cinema"},"dateTime":"2017-07-10T22:00","barg":false},{"theatre":{"id":"5084","name":"Alamo Drafthouse South Lamar"},"dateTime":"2017-07-10T09:45","barg":false,"ticketURI":"http://www.fandango.com/tms.asp?t=AATHS&m=171221&d=2017-07-10"},{"theatre":{"id":"5084","name":"Alamo Drafthouse South Lamar"},"dateTime":"2017-07-10T11:50","barg":false,"ticketURI":"http://www.fandango.com/tms.asp?t=AATHS&m=171221&d=2017-07-10"},{"theatre":{"id":"5084","name":"Alamo Drafthouse South Lamar"},"dateTime":"2017-07-10T12:45","barg":false,"ticketURI":"http://www.fandango.com/tms.asp?t=AATHS&m=171221&d=2017-07-10"},{"theatre":{"id":"5084","name":"Alamo Drafthouse South Lamar"},"dateTime":"2017-07-10T15:00","barg":false,"ticketURI":"http://www.fandango.com/tms.asp?t=AATHS&m=171221&d=2017-07-10"},{"theatre":{"id":"5084","name":"Alamo Drafthouse South Lamar"},"dateTime":"2017-07-10T15:50","barg":false,"ticketURI":"http://www.fandango.com/tms.asp?t=AATHS&m=171221&d=2017-07-10"},{"theatre":{"id":"5084","name":"Alamo Drafthouse South Lamar"},"dateTime":"2017-07-10T17:15","barg":false,"ticketURI":"http://www.fandango.com/tms.asp?t=AATHS&m=171221&d=2017-07-10"},{"theatre":{"id":"5084","name":"Alamo Drafthouse South Lamar"},"dateTime":"2017-07-10T18:15","barg":false,"ticketURI":"http://www.fandango.com/tms.asp?t=AATHS&m=171221&d=2017-07-10"},{"theatre":{"id":"5084","name":"Alamo Drafthouse South Lamar"},"dateTime":"2017-07-10T19:00","barg":false,"ticketURI":"http://www.fandango.com/tms.asp?t=AATHS&m=171221&d=2017-07-10"},{"theatre":{"id":"5084","name":"Alamo Drafthouse South Lamar"},"dateTime":"2017-07-10T21:20","barg":false,"ticketURI":"http://www.fandango.com/tms.asp?t=AATHS&m=171221&d=2017-07-10"},{"theatre":{"id":"5084","name":"Alamo Drafthouse South Lamar"},"dateTime":"2017-07-10T21:55","barg":false,"ticketURI":"http://www.fandango.com/tms.asp?t=AATHS&m=171221&d=2017-07-10"},{"theatre":{"id":"5084","name":"Alamo Drafthouse South Lamar"},"dateTime":"2017-07-10T22:05","barg":false,"ticketURI":"http://www.fandango.com/tms.asp?t=AATHS&m=171221&d=2017-07-10"},{"theatre":{"id":"5320","name":"AMC Barton Creek Square 14"},"dateTime":"2017-07-10T10:50","quals":"Recliners|Reserved Seating|AMC Independent|Descriptive Video Services|Closed Captioned","barg":false,"ticketURI":"http://www.fandango.com/tms.asp?t=AANCC&m=171221&d=2017-07-10"},{"theatre":{"id":"5320","name":"AMC Barton Creek Square 14"},"dateTime":"2017-07-10T12:10","quals":"Recliners|Reserved Seating|AMC Independent|Descriptive Video Services|Closed Captioned","barg":false,"ticketURI":"http://www.fandango.com/tms.asp?t=AANCC&m=171221&d=2017-07-10"},{"theatre":{"id":"5320","name":"AMC Barton Creek Square 14"},"dateTime":"2017-07-10T13:40","quals":"Recliners|Reserved Seating|AMC Independent|Descriptive Video Services|Closed Captioned","barg":false,"ticketURI":"http://www.fandango.com/tms.asp?t=AANCC&m=171221&d=2017-07-10"},{"theatre":{"id":"5320","name":"AMC Barton Creek Square 14"},"dateTime":"2017-07-10T15:10","quals":"Recliners|Reserved Seating|AMC Independent|Descriptive Video Services|Closed Captioned","barg":false,"ticketURI":"http://www.fandango.com/tms.asp?t=AANCC&m=171221&d=2017-07-10"},{"theatre":{"id":"5320","name":"AMC Barton Creek Square 14"},"dateTime":"2017-07-10T16:40","quals":"Recliners|Reserved Seating|AMC Independent|Descriptive Video Services|Closed Captioned","barg":false,"ticketURI":"http://www.fandango.com/tms.asp?t=AANCC&m=171221&d=2017-07-10"},{"theatre":{"id":"5320","name":"AMC Barton Creek Square 14"},"dateTime":"2017-07-10T18:10","quals":"Recliners|Reserved Seating|AMC Independent|Descriptive Video Services|Closed Captioned","barg":false,"ticketURI":"http://www.fandango.com/tms.asp?t=AANCC&m=171221&d=2017-07-10"},{"theatre":{"id":"5320","name":"AMC Barton Creek Square 14"},"dateTime":"2017-07-10T19:30","quals":"Recliners|Reserved Seating|AMC Independent|Descriptive Video Services|Closed Captioned","barg":false,"ticketURI":"http://www.fandango.com/tms.asp?t=AANCC&m=171221&d=2017-07-10"},{"theatre":{"id":"5320","name":"AMC Barton Creek Square 14"},"dateTime":"2017-07-10T21:20","quals":"Recliners|Reserved Seating|AMC Independent|Descriptive Video Services|Closed Captioned","barg":false,"ticketURI":"http://www.fandango.com/tms.asp?t=AANCC&m=171221&d=2017-07-10"},{"theatre":{"id":"5320","name":"AMC Barton Creek Square 14"},"dateTime":"2017-07-10T22:20","quals":"Recliners|Reserved Seating|AMC Independent|Descriptive Video Services|Closed Captioned","barg":false,"ticketURI":"http://www.fandango.com/tms.asp?t=AANCC&m=171221&d=2017-07-10"}]},{"tmsId":"MV006990080000","rootId":"11391718","subType":"Short Film","title":"Shipwrecked","releaseYear":2014,"releaseDate":"2014","titleLang":"en","descriptionLang":"en","entityType":"Movie","genres":["Historical drama"],"longDescription":"In 1684, French explorer Robert Cavelier sails to the new world to set up a colony at the mouth of the Mississippi River.","shortDescription":"Robert Cavelier sails to the new world to set up a colony at the mouth of the Mississippi River.","runTime":"PT00H26M","preferredImage":{"uri":"tvbanners/generic/generic_tvbanners_v5.png"},"showtimes":[{"theatre":{"id":"11449","name":"Texas Spirit Theater"},"dateTime":"2017-07-10T10:00","barg":false},{"theatre":{"id":"11449","name":"Texas Spirit Theater"},"dateTime":"2017-07-10T11:30","barg":false},{"theatre":{"id":"11449","name":"Texas Spirit Theater"},"dateTime":"2017-07-10T13:00","barg":false},{"theatre":{"id":"11449","name":"Texas Spirit Theater"},"dateTime":"2017-07-10T16:00","barg":false}]},{"tmsId":"EV000003917341","rootId":"9713960","subType":"Theatre Event","title":"Star of Destiny","titleLang":"en","entityType":"Movie","preferredImage":{"uri":"tvbanners/generic/generic_tvbanners_v5.png"},"showtimes":[{"theatre":{"id":"11449","name":"Texas Spirit Theater"},"dateTime":"2017-07-10T11:00","barg":false},{"theatre":{"id":"11449","name":"Texas Spirit Theater"},"dateTime":"2017-07-10T14:00","barg":false},{"theatre":{"id":"11449","name":"Texas Spirit Theater"},"dateTime":"2017-07-10T15:30","barg":false}]},{"tmsId":"MV008779280000","rootId":"12771397","subType":"Short Film","title":"Hi How Are You Daniel Johnston","releaseYear":2015,"releaseDate":"2015","titleLang":"en","descriptionLang":"en","entityType":"Movie","genres":["Biography","Fantasy","Musical","Animated"],"shortDescription":"An aging musician comes to terms with the dreams of yesteryear.","longDescription":"An aging musician comes to terms with the dreams of yesteryear.","topCast":["Daniel Johnston","Greg McLeod","Myles McLeod"],"directors":["Gabriel Sunday"],"runTime":"PT00H15M","animation":"Animated","preferredImage":{"uri":"tvbanners/generic/generic_tvbanners_v5.png"},"showtimes":[{"theatre":{"id":"11449","name":"Texas Spirit Theater"},"dateTime":"2017-07-10T12:30","barg":false},{"theatre":{"id":"11449","name":"Texas Spirit Theater"},"dateTime":"2017-07-10T14:30","barg":false}]},{"tmsId":"MV006209940000","rootId":"11036920","subType":"Short Film","title":"Tiny Giants 3D","releaseYear":2014,"releaseDate":"2014","titleLang":"en","descriptionLang":"en","entityType":"Movie","genres":["Documentary"],"shortDescription":"Adventures of a grasshopper mouse and a chipmunk that survive in the wild.","longDescription":"Adventures of a grasshopper mouse and a chipmunk that survive in the wild.","directors":["Mark Brownlow"],"runTime":"PT00H40M","preferredImage":{"uri":"tvbanners/generic/generic_tvbanners_v5.png"},"showtimes":[{"theatre":{"id":"4604","name":"Bullock Museum Spirit Theater"},"dateTime":"2017-07-10T10:00","barg":false},{"theatre":{"id":"4604","name":"Bullock Museum Spirit Theater"},"dateTime":"2017-07-10T12:00","barg":false}]},{"tmsId":"MV002342900000","rootId":"168482","subType":"Short Film","title":"Wild Africa 3D","releaseYear":2007,"releaseDate":"2007-03-01","titleLang":"en","descriptionLang":"en","entityType":"Movie","genres":["Documentary"],"shortDescription":"A unique photo safari in the Okavango Delta.","longDescription":"A unique photo safari in the Okavango Delta.","directors":["Ben Stassen"],"runTime":"PT00H40M","preferredImage":{"uri":"tvbanners/generic/generic_tvbanners_v5.png"},"showtimes":[{"theatre":{"id":"4604","name":"Bullock Museum Spirit Theater"},"dateTime":"2017-07-10T11:00","quals":"A.M.","barg":false}]},{"tmsId":"MV009643730000","rootId":"12798844","subType":"Feature Film","title":"Spider-Man: Homecoming -- An IMAX 3D Experience","releaseYear":2017,"releaseDate":"2017-07-07","titleLang":"en","descriptionLang":"en","entityType":"Movie","genres":["Action","Adventure","Fantasy"],"longDescription":"Thrilled by his experience with the Avengers, young Peter Parker returns home to live with his Aunt May. Under the watchful eye of mentor Tony Stark, Parker starts to embrace his newfound identity as Spider-Man. He also tries to return to his normal daily routine -- distracted by thoughts of proving himself to be more than just a friendly neighborhood superhero. Peter must soon put his powers to the test when the evil Vulture emerges to threaten everything that he holds dear.","shortDescription":"High school student Peter Parker embraces his new identity as Spider-Man to battle the evil Vulture.","topCast":["Tom Holland","Michael Keaton","Robert Downey Jr."],"directors":["Jon Watts"],"officialUrl":"http://www.spidermanhomecoming.com/","ratings":[{"body":"Motion Picture Association of America","code":"PG-13"}],"advisories":["Adult Language","Adult Situations","Violence"],"runTime":"PT02H14M","preferredImage":{"width":"240","height":"360","caption":{"content":"Spider-Man: Homecoming -- The IMAX 2D Experience (2017)","lang":"en"},"uri":"assets/p12798844_p_v5_ac.jpg","category":"Poster Art","text":"yes"},"showtimes":[{"theatre":{"id":"4604","name":"Bullock Museum Spirit Theater"},"dateTime":"2017-07-10T13:20","barg":false},{"theatre":{"id":"4604","name":"Bullock Museum Spirit Theater"},"dateTime":"2017-07-10T19:10","barg":false},{"theatre":{"id":"5320","name":"AMC Barton Creek Square 14"},"dateTime":"2017-07-10T13:00","barg":false,"ticketURI":"http://www.fandango.com/tms.asp?t=AANCC&m=169646&d=2017-07-10"},{"theatre":{"id":"5320","name":"AMC Barton Creek Square 14"},"dateTime":"2017-07-10T22:10","barg":false,"ticketURI":"http://www.fandango.com/tms.asp?t=AANCC&m=169646&d=2017-07-10"}]},{"tmsId":"MV010130450000","rootId":"12798844","subType":"Feature Film","title":"Spider-Man: Homecoming -- The IMAX 2D Experience","releaseYear":2017,"releaseDate":"2017-07-07","titleLang":"en","descriptionLang":"en","entityType":"Movie","genres":["Action","Adventure","Fantasy"],"longDescription":"Thrilled by his experience with the Avengers, young Peter Parker returns home to live with his Aunt May. Under the watchful eye of mentor Tony Stark, Parker starts to embrace his newfound identity as Spider-Man. He also tries to return to his normal daily routine -- distracted by thoughts of proving himself to be more than just a friendly neighborhood superhero. Peter must soon put his powers to the test when the evil Vulture emerges to threaten everything that he holds dear.","shortDescription":"High school student Peter Parker embraces his new identity as Spider-Man to battle the evil Vulture.","topCast":["Tom Holland","Michael Keaton","Robert Downey Jr."],"directors":["Jon Watts"],"officialUrl":"http://www.spidermanhomecoming.com/","ratings":[{"body":"Motion Picture Association of America","code":"PG-13"}],"advisories":["Adult Language","Adult Situations","Violence"],"runTime":"PT02H14M","preferredImage":{"width":"240","height":"360","caption":{"content":"Spider-Man: Homecoming (2017)","lang":"en"},"uri":"assets/p12798844_p_v5_ab.jpg","category":"Poster Art","text":"yes","primary":"true"},"showtimes":[{"theatre":{"id":"4604","name":"Bullock Museum Spirit Theater"},"dateTime":"2017-07-10T16:15","barg":false},{"theatre":{"id":"4604","name":"Bullock Museum Spirit Theater"},"dateTime":"2017-07-10T22:05","barg":false},{"theatre":{"id":"5320","name":"AMC Barton Creek Square 14"},"dateTime":"2017-07-10T10:00","barg":false,"ticketURI":"http://www.fandango.com/tms.asp?t=AANCC&m=174957&d=2017-07-10"},{"theatre":{"id":"5320","name":"AMC Barton Creek Square 14"},"dateTime":"2017-07-10T16:00","barg":false,"ticketURI":"http://www.fandango.com/tms.asp?t=AANCC&m=174957&d=2017-07-10"},{"theatre":{"id":"5320","name":"AMC Barton Creek Square 14"},"dateTime":"2017-07-10T19:00","barg":false,"ticketURI":"http://www.fandango.com/tms.asp?t=AANCC&m=174957&d=2017-07-10"}]},{"tmsId":"MV008806610000","rootId":"12798844","subType":"Feature Film","title":"Spider-Man: Homecoming","releaseYear":2017,"releaseDate":"2017-07-07","titleLang":"en","descriptionLang":"en","entityType":"Movie","genres":["Action","Adventure","Fantasy"],"longDescription":"Thrilled by his experience with the Avengers, young Peter Parker returns home to live with his Aunt May. Under the watchful eye of mentor Tony Stark, Parker starts to embrace his newfound identity as Spider-Man. He also tries to return to his normal daily routine -- distracted by thoughts of proving himself to be more than just a friendly neighborhood superhero. Peter must soon put his powers to the test when the evil Vulture emerges to threaten everything that he holds dear.","shortDescription":"High school student Peter Parker embraces his new identity as Spider-Man to battle the evil Vulture.","topCast":["Tom Holland","Michael Keaton","Robert Downey Jr."],"directors":["Jon Watts"],"officialUrl":"http://www.spidermanhomecoming.com/","ratings":[{"body":"Motion Picture Association of America","code":"PG-13"}],"advisories":["Adult Language","Adult Situations","Violence"],"runTime":"PT02H14M","preferredImage":{"width":"240","height":"360","caption":{"content":"Spider-Man: Homecoming (2017)","lang":"en"},"uri":"assets/p12798844_p_v5_ab.jpg","category":"Poster Art","text":"yes","primary":"true"},"showtimes":[{"theatre":{"id":"5084","name":"Alamo Drafthouse South Lamar"},"dateTime":"2017-07-10T09:45","barg":false,"ticketURI":"http://www.fandango.com/tms.asp?t=AATHS&m=161696&d=2017-07-10"},{"theatre":{"id":"5084","name":"Alamo Drafthouse South Lamar"},"dateTime":"2017-07-10T11:30","barg":false,"ticketURI":"http://www.fandango.com/tms.asp?t=AATHS&m=161696&d=2017-07-10"},{"theatre":{"id":"5084","name":"Alamo Drafthouse South Lamar"},"dateTime":"2017-07-10T13:00","barg":false,"ticketURI":"http://www.fandango.com/tms.asp?t=AATHS&m=161696&d=2017-07-10"},{"theatre":{"id":"5084","name":"Alamo Drafthouse South Lamar"},"dateTime":"2017-07-10T15:20","barg":false,"ticketURI":"http://www.fandango.com/tms.asp?t=AATHS&m=161696&d=2017-07-10"},{"theatre":{"id":"5084","name":"Alamo Drafthouse South Lamar"},"dateTime":"2017-07-10T16:15","barg":false,"ticketURI":"http://www.fandango.com/tms.asp?t=AATHS&m=161696&d=2017-07-10"},{"theatre":{"id":"5084","name":"Alamo Drafthouse South Lamar"},"dateTime":"2017-07-10T18:00","barg":false,"ticketURI":"http://www.fandango.com/tms.asp?t=AATHS&m=161696&d=2017-07-10"},{"theatre":{"id":"5084","name":"Alamo Drafthouse South Lamar"},"dateTime":"2017-07-10T18:35","barg":false,"ticketURI":"http://www.fandango.com/tms.asp?t=AATHS&m=161696&d=2017-07-10"},{"theatre":{"id":"5084","name":"Alamo Drafthouse South Lamar"},"dateTime":"2017-07-10T19:30","barg":false,"ticketURI":"http://www.fandango.com/tms.asp?t=AATHS&m=161696&d=2017-07-10"},{"theatre":{"id":"5084","name":"Alamo Drafthouse South Lamar"},"dateTime":"2017-07-10T21:20","barg":false,"ticketURI":"http://www.fandango.com/tms.asp?t=AATHS&m=161696&d=2017-07-10"},{"theatre":{"id":"5084","name":"Alamo Drafthouse South Lamar"},"dateTime":"2017-07-10T22:50","barg":false,"ticketURI":"http://www.fandango.com/tms.asp?t=AATHS&m=161696&d=2017-07-10"},{"theatre":{"id":"11470","name":"Alamo Drafthouse Mueller"},"dateTime":"2017-07-10T10:30","barg":false,"ticketURI":"http://www.fandango.com/tms.asp?t=AAYBF&m=161696&d=2017-07-10"},{"theatre":{"id":"11470","name":"Alamo Drafthouse Mueller"},"dateTime":"2017-07-10T11:15","quals":"A.M.","barg":false,"ticketURI":"http://www.fandango.com/tms.asp?t=AAYBF&m=161696&d=2017-07-10"},{"theatre":{"id":"11470","name":"Alamo Drafthouse Mueller"},"dateTime":"2017-07-10T12:20","barg":false,"ticketURI":"http://www.fandango.com/tms.asp?t=AAYBF&m=161696&d=2017-07-10"},{"theatre":{"id":"11470","name":"Alamo Drafthouse Mueller"},"dateTime":"2017-07-10T14:00","barg":false,"ticketURI":"http://www.fandango.com/tms.asp?t=AAYBF&m=161696&d=2017-07-10"},{"theatre":{"id":"11470","name":"Alamo Drafthouse Mueller"},"dateTime":"2017-07-10T14:30","barg":false,"ticketURI":"http://www.fandango.com/tms.asp?t=AAYBF&m=161696&d=2017-07-10"},{"theatre":{"id":"11470","name":"Alamo Drafthouse Mueller"},"dateTime":"2017-07-10T18:00","barg":false,"ticketURI":"http://www.fandango.com/tms.asp?t=AAYBF&m=161696&d=2017-07-10"},{"theatre":{"id":"11470","name":"Alamo Drafthouse Mueller"},"dateTime":"2017-07-10T19:30","barg":false,"ticketURI":"http://www.fandango.com/tms.asp?t=AAYBF&m=161696&d=2017-07-10"},{"theatre":{"id":"11470","name":"Alamo Drafthouse Mueller"},"dateTime":"2017-07-10T21:30","barg":false,"ticketURI":"http://www.fandango.com/tms.asp?t=AAYBF&m=161696&d=2017-07-10"},{"theatre":{"id":"11470","name":"Alamo Drafthouse Mueller"},"dateTime":"2017-07-10T22:00","barg":false,"ticketURI":"http://www.fandango.com/tms.asp?t=AAYBF&m=161696&d=2017-07-10"},{"theatre":{"id":"11470","name":"Alamo Drafthouse Mueller"},"dateTime":"2017-07-10T23:00","barg":false,"ticketURI":"http://www.fandango.com/tms.asp?t=AAYBF&m=161696&d=2017-07-10"},{"theatre":{"id":"8298","name":"Regal Westgate Stadium 11"},"dateTime":"2017-07-10T10:30","quals":"Descriptive Video Services|No Passes|Closed Captioned","barg":true,"ticketURI":"http://www.fandango.com/tms.asp?t=AANOT&m=161696&d=2017-07-10"},{"theatre":{"id":"8298","name":"Regal Westgate Stadium 11"},"dateTime":"2017-07-10T12:00","quals":"Descriptive Video Services|No Passes|Closed Captioned","barg":true,"ticketURI":"http://www.fandango.com/tms.asp?t=AANOT&m=161696&d=2017-07-10"},{"theatre":{"id":"8298","name":"Regal Westgate Stadium 11"},"dateTime":"2017-07-10T13:00","quals":"Descriptive Video Services|No Passes|Closed Captioned","barg":true,"ticketURI":"http://www.fandango.com/tms.asp?t=AANOT&m=161696&d=2017-07-10"},{"theatre":{"id":"8298","name":"Regal Westgate Stadium 11"},"dateTime":"2017-07-10T15:15","quals":"Closed Captioned|No Passes|Descriptive Video Services","barg":true,"ticketURI":"http://www.fandango.com/tms.asp?t=AANOT&m=161696&d=2017-07-10"},{"theatre":{"id":"8298","name":"Regal Westgate Stadium 11"},"dateTime":"2017-07-10T16:15","quals":"Descriptive Video Services|Closed Captioned|No Passes","barg":true,"ticketURI":"http://www.fandango.com/tms.asp?t=AANOT&m=161696&d=2017-07-10"},{"theatre":{"id":"8298","name":"Regal Westgate Stadium 11"},"dateTime":"2017-07-10T18:30","quals":"Descriptive Video Services|No Passes|Closed Captioned","barg":false,"ticketURI":"http://www.fandango.com/tms.asp?t=AANOT&m=161696&d=2017-07-10"},{"theatre":{"id":"8298","name":"Regal Westgate Stadium 11"},"dateTime":"2017-07-10T19:30","quals":"Descriptive Video Services|No Passes|Closed Captioned","barg":false,"ticketURI":"http://www.fandango.com/tms.asp?t=AANOT&m=161696&d=2017-07-10"},{"theatre":{"id":"8298","name":"Regal Westgate Stadium 11"},"dateTime":"2017-07-10T21:30","quals":"Descriptive Video Services|No Passes|Closed Captioned","barg":false,"ticketURI":"http://www.fandango.com/tms.asp?t=AANOT&m=161696&d=2017-07-10"},{"theatre":{"id":"8298","name":"Regal Westgate Stadium 11"},"dateTime":"2017-07-10T22:00","quals":"Descriptive Video Services|No Passes|Closed Captioned","barg":false,"ticketURI":"http://www.fandango.com/tms.asp?t=AANOT&m=161696&d=2017-07-10"},{"theatre":{"id":"8298","name":"Regal Westgate Stadium 11"},"dateTime":"2017-07-10T22:30","quals":"Descriptive Video Services|No Passes|Closed Captioned","barg":false,"ticketURI":"http://www.fandango.com/tms.asp?t=AANOT&m=161696&d=2017-07-10"},{"theatre":{"id":"5320","name":"AMC Barton Creek Square 14"},"dateTime":"2017-07-10T11:15","quals":"Recliners|No Passes|Reserved Seating|Descriptive Video Services|Closed Captioned","barg":false,"ticketURI":"http://www.fandango.com/tms.asp?t=AANCC&m=161696&d=2017-07-10"},{"theatre":{"id":"5320","name":"AMC Barton Creek Square 14"},"dateTime":"2017-07-10T14:15","quals":"Recliners|No Passes|Reserved Seating|Descriptive Video Services|Closed Captioned","barg":false,"ticketURI":"http://www.fandango.com/tms.asp?t=AANCC&m=161696&d=2017-07-10"},{"theatre":{"id":"5320","name":"AMC Barton Creek Square 14"},"dateTime":"2017-07-10T17:15","quals":"Recliners|No Passes|Reserved Seating|Descriptive Video Services|Closed Captioned","barg":false,"ticketURI":"http://www.fandango.com/tms.asp?t=AANCC&m=161696&d=2017-07-10"},{"theatre":{"id":"5320","name":"AMC Barton Creek Square 14"},"dateTime":"2017-07-10T20:30","quals":"Recliners|No Passes|Reserved Seating|Descriptive Video Services|Closed Captioned","barg":false,"ticketURI":"http://www.fandango.com/tms.asp?t=AANCC&m=161696&d=2017-07-10"},{"theatre":{"id":"8749","name":"Galaxy Highland"},"dateTime":"2017-07-10T13:00","quals":"Closed Captioned|Hearing Impaired|Descriptive Audio Services","barg":false},{"theatre":{"id":"8749","name":"Galaxy Highland"},"dateTime":"2017-07-10T13:15","quals":"Closed Captioned|Hearing Impaired|Descriptive Audio Services","barg":false},{"theatre":{"id":"8749","name":"Galaxy Highland"},"dateTime":"2017-07-10T13:30","quals":"Descriptive Audio Services|Closed Captioned|Hearing Impaired","barg":false},{"theatre":{"id":"8749","name":"Galaxy Highland"},"dateTime":"2017-07-10T16:00","quals":"Closed Captioned|Hearing Impaired|Descriptive Audio Services","barg":false},{"theatre":{"id":"8749","name":"Galaxy Highland"},"dateTime":"2017-07-10T16:15","quals":"Closed Captioned|Hearing Impaired|Descriptive Audio Services","barg":false},{"theatre":{"id":"8749","name":"Galaxy Highland"},"dateTime":"2017-07-10T16:30","quals":"Closed Captioned|Hearing Impaired|Descriptive Audio Services","barg":false},{"theatre":{"id":"8749","name":"Galaxy Highland"},"dateTime":"2017-07-10T19:00","quals":"Closed Captioned|Hearing Impaired|Descriptive Audio Services","barg":false},{"theatre":{"id":"8749","name":"Galaxy Highland"},"dateTime":"2017-07-10T19:15","quals":"Closed Captioned|Hearing Impaired|Descriptive Audio Services","barg":false},{"theatre":{"id":"8749","name":"Galaxy Highland"},"dateTime":"2017-07-10T19:30","quals":"Closed Captioned|Hearing Impaired|Descriptive Audio Services","barg":false},{"theatre":{"id":"8749","name":"Galaxy Highland"},"dateTime":"2017-07-10T22:00","quals":"Closed Captioned|Hearing Impaired|Descriptive Audio Services","barg":false},{"theatre":{"id":"8749","name":"Galaxy Highland"},"dateTime":"2017-07-10T22:15","quals":"Closed Captioned|Hearing Impaired|Descriptive Audio Services","barg":false},{"theatre":{"id":"8749","name":"Galaxy Highland"},"dateTime":"2017-07-10T22:30","quals":"Closed Captioned|Hearing Impaired|Descriptive Audio Services","barg":false}]},{"tmsId":"MV007898130000","rootId":"12009522","subType":"Feature Film","title":"Despicable Me 3","releaseYear":2017,"releaseDate":"2017-06-30","titleLang":"en","descriptionLang":"en","entityType":"Movie","genres":["Comedy","Adventure","Animated","Children"],"audience":"Children","longDescription":"The mischievous Minions hope that Gru will return to a life of crime after the new boss of the Anti-Villain League fires him. Instead, Gru decides to remain retired and travel to Freedonia to meet his long-lost twin brother for the first time. The reunited siblings soon find themselves in an uneasy alliance to take down the elusive Balthazar Bratt, a former 1980s child star who seeks revenge against the world.","shortDescription":"Gru and his twin brother join forces to take down a former 1980s child star who\'s out for revenge.","topCast":["Steve Carell","Kristen Wiig","Trey Parker"],"directors":["Pierre Coffin","Kyle Balda"],"officialUrl":"http://www.despicable.me/","ratings":[{"body":"Motion Picture Association of America","code":"PG"}],"advisories":["Adult Situations"],"runTime":"PT01H30M","animation":"Animated","preferredImage":{"width":"240","height":"360","caption":{"content":"Despicable Me 3 3D (2017)","lang":"en"},"uri":"assets/p12009522_p_v5_ac.jpg","category":"Poster Art","text":"yes","primary":"true"},"showtimes":[{"theatre":{"id":"5084","name":"Alamo Drafthouse South Lamar"},"dateTime":"2017-07-10T10:20","barg":false,"ticketURI":"http://www.fandango.com/tms.asp?t=AATHS&m=153152&d=2017-07-10"},{"theatre":{"id":"5084","name":"Alamo Drafthouse South Lamar"},"dateTime":"2017-07-10T12:50","barg":false,"ticketURI":"http://www.fandango.com/tms.asp?t=AATHS&m=153152&d=2017-07-10"},{"theatre":{"id":"5084","name":"Alamo Drafthouse South Lamar"},"dateTime":"2017-07-10T16:00","barg":false,"ticketURI":"http://www.fandango.com/tms.asp?t=AATHS&m=153152&d=2017-07-10"},{"theatre":{"id":"5084","name":"Alamo Drafthouse South Lamar"},"dateTime":"2017-07-10T18:30","barg":false,"ticketURI":"http://www.fandango.com/tms.asp?t=AATHS&m=153152&d=2017-07-10"},{"theatre":{"id":"5084","name":"Alamo Drafthouse South Lamar"},"dateTime":"2017-07-10T21:00","barg":false,"ticketURI":"http://www.fandango.com/tms.asp?t=AATHS&m=153152&d=2017-07-10"},{"theatre":{"id":"11470","name":"Alamo Drafthouse Mueller"},"dateTime":"2017-07-10T10:45","quals":"A.M.","barg":false,"ticketURI":"http://www.fandango.com/tms.asp?t=AAYBF&m=153152&d=2017-07-10"},{"theatre":{"id":"11470","name":"Alamo Drafthouse Mueller"},"dateTime":"2017-07-10T13:30","barg":false,"ticketURI":"http://www.fandango.com/tms.asp?t=AAYBF&m=153152&d=2017-07-10"},{"theatre":{"id":"11470","name":"Alamo Drafthouse Mueller"},"dateTime":"2017-07-10T16:10","barg":false,"ticketURI":"http://www.fandango.com/tms.asp?t=AAYBF&m=153152&d=2017-07-10"},{"theatre":{"id":"11470","name":"Alamo Drafthouse Mueller"},"dateTime":"2017-07-10T20:00","barg":false,"ticketURI":"http://www.fandango.com/tms.asp?t=AAYBF&m=153152&d=2017-07-10"},{"theatre":{"id":"11470","name":"Alamo Drafthouse Mueller"},"dateTime":"2017-07-10T22:45","barg":false,"ticketURI":"http://www.fandango.com/tms.asp?t=AAYBF&m=153152&d=2017-07-10"},{"theatre":{"id":"8298","name":"Regal Westgate Stadium 11"},"dateTime":"2017-07-10T10:00","quals":"Descriptive Video Services|No Passes|Closed Captioned","barg":true,"ticketURI":"http://www.fandango.com/tms.asp?t=AANOT&m=153152&d=2017-07-10"},{"theatre":{"id":"8298","name":"Regal Westgate Stadium 11"},"dateTime":"2017-07-10T11:00","quals":"Descriptive Video Services|No Passes|Closed Captioned","barg":true,"ticketURI":"http://www.fandango.com/tms.asp?t=AANOT&m=153152&d=2017-07-10"},{"theatre":{"id":"8298","name":"Regal Westgate Stadium 11"},"dateTime":"2017-07-10T12:15","quals":"Descriptive Video Services|No Passes|Closed Captioned","barg":true,"ticketURI":"http://www.fandango.com/tms.asp?t=AANOT&m=153152&d=2017-07-10"},{"theatre":{"id":"8298","name":"Regal Westgate Stadium 11"},"dateTime":"2017-07-10T13:15","quals":"Descriptive Video Services|No Passes|Closed Captioned","barg":true,"ticketURI":"http://www.fandango.com/tms.asp?t=AANOT&m=153152&d=2017-07-10"},{"theatre":{"id":"8298","name":"Regal Westgate Stadium 11"},"dateTime":"2017-07-10T14:30","quals":"Descriptive Video Services|No Passes|Closed Captioned","barg":true,"ticketURI":"http://www.fandango.com/tms.asp?t=AANOT&m=153152&d=2017-07-10"},{"theatre":{"id":"8298","name":"Regal Westgate Stadium 11"},"dateTime":"2017-07-10T15:30","quals":"Descriptive Video Services|No Passes|Closed Captioned","barg":true,"ticketURI":"http://www.fandango.com/tms.asp?t=AANOT&m=153152&d=2017-07-10"},{"theatre":{"id":"8298","name":"Regal Westgate Stadium 11"},"dateTime":"2017-07-10T15:45","quals":"Descriptive Video Services|No Passes|Closed Captioned","barg":true,"ticketURI":"http://www.fandango.com/tms.asp?t=AANOT&m=153152&d=2017-07-10"},{"theatre":{"id":"8298","name":"Regal Westgate Stadium 11"},"dateTime":"2017-07-10T17:45","quals":"Descriptive Video Services|No Passes|Closed Captioned","barg":true,"ticketURI":"http://www.fandango.com/tms.asp?t=AANOT&m=153152&d=2017-07-10"},{"theatre":{"id":"8298","name":"Regal Westgate Stadium 11"},"dateTime":"2017-07-10T18:00","quals":"Descriptive Video Services|No Passes|Closed Captioned","barg":false,"ticketURI":"http://www.fandango.com/tms.asp?t=AANOT&m=153152&d=2017-07-10"},{"theatre":{"id":"8298","name":"Regal Westgate Stadium 11"},"dateTime":"2017-07-10T19:05","quals":"Descriptive Video Services|No Passes|Closed Captioned","barg":false,"ticketURI":"http://www.fandango.com/tms.asp?t=AANOT&m=153152&d=2017-07-10"},{"theatre":{"id":"8298","name":"Regal Westgate Stadium 11"},"dateTime":"2017-07-10T21:20","quals":"Descriptive Video Services|No Passes|Closed Captioned","barg":false,"ticketURI":"http://www.fandango.com/tms.asp?t=AANOT&m=153152&d=2017-07-10"},{"theatre":{"id":"8298","name":"Regal Westgate Stadium 11"},"dateTime":"2017-07-10T22:30","quals":"Descriptive Video Services|No Passes|Closed Captioned","barg":false,"ticketURI":"http://www.fandango.com/tms.asp?t=AANOT&m=153152&d=2017-07-10"},{"theatre":{"id":"5320","name":"AMC Barton Creek Square 14"},"dateTime":"2017-07-10T11:40","quals":"Recliners|Reserved Seating|Descriptive Video Services|Closed Captioned","barg":false,"ticketURI":"http://www.fandango.com/tms.asp?t=AANCC&m=153152&d=2017-07-10"},{"theatre":{"id":"5320","name":"AMC Barton Creek Square 14"},"dateTime":"2017-07-10T14:00","quals":"Recliners|Reserved Seating|Descriptive Video Services|Closed Captioned","barg":false,"ticketURI":"http://www.fandango.com/tms.asp?t=AANCC&m=153152&d=2017-07-10"},{"theatre":{"id":"5320","name":"AMC Barton Creek Square 14"},"dateTime":"2017-07-10T16:15","quals":"Recliners|Reserved Seating|Descriptive Video Services|Closed Captioned","barg":false,"ticketURI":"http://www.fandango.com/tms.asp?t=AANCC&m=153152&d=2017-07-10"},{"theatre":{"id":"5320","name":"AMC Barton Creek Square 14"},"dateTime":"2017-07-10T18:30","quals":"Recliners|Reserved Seating|Descriptive Video Services|Closed Captioned","barg":false,"ticketURI":"http://www.fandango.com/tms.asp?t=AANCC&m=153152&d=2017-07-10"},{"theatre":{"id":"5320","name":"AMC Barton Creek Square 14"},"dateTime":"2017-07-10T21:00","quals":"Recliners|Reserved Seating|Descriptive Video Services|Closed Captioned","barg":false,"ticketURI":"http://www.fandango.com/tms.asp?t=AANCC&m=153152&d=2017-07-10"},{"theatre":{"id":"8749","name":"Galaxy Highland"},"dateTime":"2017-07-10T13:00","quals":"Closed Captioned|Hearing Impaired|Descriptive Audio Services","barg":false},{"theatre":{"id":"8749","name":"Galaxy Highland"},"dateTime":"2017-07-10T13:15","quals":"Closed Captioned|Hearing Impaired|Descriptive Audio Services","barg":false},{"theatre":{"id":"8749","name":"Galaxy Highland"},"dateTime":"2017-07-10T16:20","quals":"Closed Captioned|Hearing Impaired|Descriptive Audio Services","barg":false},{"theatre":{"id":"8749","name":"Galaxy Highland"},"dateTime":"2017-07-10T19:00","quals":"Closed Captioned|Hearing Impaired|Descriptive Audio Services","barg":false},{"theatre":{"id":"8749","name":"Galaxy Highland"},"dateTime":"2017-07-10T21:15","quals":"Closed Captioned|Hearing Impaired|Descriptive Audio Services","barg":false},{"theatre":{"id":"8749","name":"Galaxy Highland"},"dateTime":"2017-07-10T21:30","quals":"Closed Captioned|Hearing Impaired|Descriptive Audio Services","barg":false}]},{"tmsId":"MV009941760000","rootId":"13982101","subType":"Feature Film","title":"Beatriz at Dinner","releaseYear":2017,"releaseDate":"2017-01-23","titleLang":"en","descriptionLang":"en","entityType":"Movie","genres":["Dark comedy"],"longDescription":"Beatriz is a Los Angeles massage therapist and holistic healer who drives to the seaside mansion of her client Cathy. When her old Volkswagen breaks down, she receives a friendly invitation from Cathy to stay for a seemingly innocent business dinner. As the guests arrive and the wine starts to flow, Beatriz finds herself in an escalating war of words with Doug Strutt, a ruthless real estate mogul who cares more about money than people.","shortDescription":"A holistic healer clashes with a ruthless real estate mogul at a client\'s dinner party.","topCast":["Salma Hayek","John Lithgow","Connie Britton"],"directors":["Miguel Arteta"],"officialUrl":"http://www.beatrizatdinnermovie.com/","qualityRating":{"ratingsBody":"TMS","value":"3"},"ratings":[{"body":"Motion Picture Association of America","code":"R"}],"advisories":["Adult Language","Adult Situations","Violence"],"runTime":"PT01H23M","preferredImage":{"width":"240","height":"360","uri":"assets/p13982101_v_v5_aa.jpg","category":"VOD Art","text":"yes","primary":"true"},"showtimes":[{"theatre":{"id":"5084","name":"Alamo Drafthouse South Lamar"},"dateTime":"2017-07-10T11:00","barg":false,"ticketURI":"http://www.fandango.com/tms.asp?t=AATHS&m=172588&d=2017-07-10"},{"theatre":{"id":"5084","name":"Alamo Drafthouse South Lamar"},"dateTime":"2017-07-10T20:15","barg":false,"ticketURI":"http://www.fandango.com/tms.asp?t=AATHS&m=172588&d=2017-07-10"},{"theatre":{"id":"11546","name":"AFS Cinema"},"dateTime":"2017-07-10T16:45","barg":false}]},{"tmsId":"MV009318530000","rootId":"13287306","subType":"Feature Film","title":"The Bad Batch","releaseYear":2016,"releaseDate":"2016-09-06","titleLang":"en","descriptionLang":"en","entityType":"Movie","genres":["Horror","Thriller"],"longDescription":"Arlen is abandoned in a Texas wasteland that is fenced off from civilization. While trying to navigate the unforgiving landscape, Arlen is captured by a savage band of cannibals led by the mysterious Miami Man. With her life on the line, she makes her way to The Dream. As she adjusts to life in the bad batch, Arlen discovers that being good or bad mostly depends on who\'s standing next to you.","shortDescription":"A young woman gets exiled to a Texas wasteland where savage cannibals fight for survival.","topCast":["Suki Waterhouse","Jason Momoa","Keanu Reeves"],"directors":["Ana Lily Amirpour"],"qualityRating":{"ratingsBody":"TMS","value":"2.5"},"ratings":[{"body":"Motion Picture Association of America","code":"R"}],"advisories":["Adult Language","Adult Situations","Brief Nudity","Graphic Violence"],"runTime":"PT01H58M","preferredImage":{"width":"240","height":"360","uri":"assets/p13287306_v_v5_aa.jpg","category":"VOD Art","text":"yes","primary":"true"},"showtimes":[{"theatre":{"id":"5084","name":"Alamo Drafthouse South Lamar"},"dateTime":"2017-07-10T11:05","barg":false,"ticketURI":"http://www.fandango.com/tms.asp?t=AATHS&m=166552&d=2017-07-10"},{"theatre":{"id":"5084","name":"Alamo Drafthouse South Lamar"},"dateTime":"2017-07-10T14:10","barg":false,"ticketURI":"http://www.fandango.com/tms.asp?t=AATHS&m=166552&d=2017-07-10"}]},{"tmsId":"MV008489260000","rootId":"12543972","subType":"Feature Film","title":"Wonder Woman","releaseYear":2017,"releaseDate":"2017-06-02","titleLang":"en","descriptionLang":"en","entityType":"Movie","genres":["Action","Adventure","Fantasy"],"longDescription":"Before she was Wonder Woman (Gal Gadot), she was Diana, princess of the Amazons, trained to be an unconquerable warrior. Raised on a sheltered island paradise, Diana meets an American pilot (Chris Pine) who tells her about the massive conflict that\'s raging in the outside world. Convinced that she can stop the threat, Diana leaves her home for the first time. Fighting alongside men in a war to end all wars, she finally discovers her full powers and true destiny.","shortDescription":"Wonder Woman (Gal Gadot) discovers her full powers and true destiny while fighting alongside men.","topCast":["Gal Gadot","Chris Pine","Connie Nielsen"],"directors":["Patty Jenkins"],"officialUrl":"http://wonderwomanfilm.com/","qualityRating":{"ratingsBody":"TMS","value":"3"},"ratings":[{"body":"Motion Picture Association of America","code":"PG-13"}],"advisories":["Adult Situations","Violence"],"runTime":"PT02H21M","preferredImage":{"width":"240","height":"360","caption":{"content":"Wonder Woman (2017)","lang":"en"},"uri":"assets/p12543972_p_v5_ai.jpg","category":"Poster Art","text":"yes","primary":"true"},"showtimes":[{"theatre":{"id":"5084","name":"Alamo Drafthouse South Lamar"},"dateTime":"2017-07-10T11:45","barg":false,"ticketURI":"http://www.fandango.com/tms.asp?t=AATHS&m=158785&d=2017-07-10"},{"theatre":{"id":"5084","name":"Alamo Drafthouse South Lamar"},"dateTime":"2017-07-10T15:10","barg":false,"ticketURI":"http://www.fandango.com/tms.asp?t=AATHS&m=158785&d=2017-07-10"},{"theatre":{"id":"5084","name":"Alamo Drafthouse South Lamar"},"dateTime":"2017-07-10T18:40","barg":false,"ticketURI":"http://www.fandango.com/tms.asp?t=AATHS&m=158785&d=2017-07-10"},{"theatre":{"id":"5084","name":"Alamo Drafthouse South Lamar"},"dateTime":"2017-07-10T22:25","barg":false,"ticketURI":"http://www.fandango.com/tms.asp?t=AATHS&m=158785&d=2017-07-10"},{"theatre":{"id":"11470","name":"Alamo Drafthouse Mueller"},"dateTime":"2017-07-10T13:00","barg":false,"ticketURI":"http://www.fandango.com/tms.asp?t=AAYBF&m=158785&d=2017-07-10"},{"theatre":{"id":"11470","name":"Alamo Drafthouse Mueller"},"dateTime":"2017-07-10T16:30","barg":false,"ticketURI":"http://www.fandango.com/tms.asp?t=AAYBF&m=158785&d=2017-07-10"},{"theatre":{"id":"11470","name":"Alamo Drafthouse Mueller"},"dateTime":"2017-07-10T19:00","barg":false,"ticketURI":"http://www.fandango.com/tms.asp?t=AAYBF&m=158785&d=2017-07-10"},{"theatre":{"id":"11470","name":"Alamo Drafthouse Mueller"},"dateTime":"2017-07-10T22:30","barg":false,"ticketURI":"http://www.fandango.com/tms.asp?t=AAYBF&m=158785&d=2017-07-10"},{"theatre":{"id":"8298","name":"Regal Westgate Stadium 11"},"dateTime":"2017-07-10T11:15","quals":"Descriptive Video Services|Closed Captioned","barg":true,"ticketURI":"http://www.fandango.com/tms.asp?t=AANOT&m=158785&d=2017-07-10"},{"theatre":{"id":"8298","name":"Regal Westgate Stadium 11"},"dateTime":"2017-07-10T13:00","quals":"Descriptive Video Services|Closed Captioned","barg":true,"ticketURI":"http://www.fandango.com/tms.asp?t=AANOT&m=158785&d=2017-07-10"},{"theatre":{"id":"8298","name":"Regal Westgate Stadium 11"},"dateTime":"2017-07-10T16:10","quals":"Descriptive Video Services|Closed Captioned","barg":true,"ticketURI":"http://www.fandango.com/tms.asp?t=AANOT&m=158785&d=2017-07-10"},{"theatre":{"id":"8298","name":"Regal Westgate Stadium 11"},"dateTime":"2017-07-10T19:15","quals":"Descriptive Video Services|Closed Captioned","barg":false,"ticketURI":"http://www.fandango.com/tms.asp?t=AANOT&m=158785&d=2017-07-10"},{"theatre":{"id":"8298","name":"Regal Westgate Stadium 11"},"dateTime":"2017-07-10T22:20","quals":"Descriptive Video Services|Closed Captioned","barg":false,"ticketURI":"http://www.fandango.com/tms.asp?t=AANOT&m=158785&d=2017-07-10"},{"theatre":{"id":"5320","name":"AMC Barton Creek Square 14"},"dateTime":"2017-07-10T11:50","quals":"Recliners|Reserved Seating|Descriptive Video Services|Closed Captioned","barg":false,"ticketURI":"http://www.fandango.com/tms.asp?t=AANCC&m=158785&d=2017-07-10"},{"theatre":{"id":"5320","name":"AMC Barton Creek Square 14"},"dateTime":"2017-07-10T15:40","quals":"Recliners|Reserved Seating|Descriptive Video Services|Closed Captioned","barg":false,"ticketURI":"http://www.fandango.com/tms.asp?t=AANCC&m=158785&d=2017-07-10"},{"theatre":{"id":"5320","name":"AMC Barton Creek Square 14"},"dateTime":"2017-07-10T19:15","quals":"Recliners|Reserved Seating|Descriptive Video Services|Closed Captioned","barg":false,"ticketURI":"http://www.fandango.com/tms.asp?t=AANCC&m=158785&d=2017-07-10"},{"theatre":{"id":"5320","name":"AMC Barton Creek Square 14"},"dateTime":"2017-07-10T22:30","quals":"Recliners|Reserved Seating|Descriptive Video Services|Closed Captioned","barg":false,"ticketURI":"http://www.fandango.com/tms.asp?t=AANCC&m=158785&d=2017-07-10"},{"theatre":{"id":"8749","name":"Galaxy Highland"},"dateTime":"2017-07-10T12:55","quals":"Closed Captioned|Hearing Impaired|Descriptive Audio Services","barg":false},{"theatre":{"id":"8749","name":"Galaxy Highland"},"dateTime":"2017-07-10T16:00","quals":"Closed Captioned|Hearing Impaired|Descriptive Audio Services","barg":false},{"theatre":{"id":"8749","name":"Galaxy Highland"},"dateTime":"2017-07-10T19:05","quals":"Closed Captioned|Hearing Impaired|Descriptive Audio Services","barg":false},{"theatre":{"id":"8749","name":"Galaxy Highland"},"dateTime":"2017-07-10T22:15","quals":"Closed Captioned|Hearing Impaired|Descriptive Audio Services","barg":false}]},{"tmsId":"MV009807550000","rootId":"13815943","subType":"Feature Film","title":"It Comes at Night","releaseYear":2017,"releaseDate":"2017-06-09","titleLang":"en","descriptionLang":"en","entityType":"Movie","genres":["Horror","Thriller"],"longDescription":"Secure within a desolate home as an unnatural threat terrorizes the world, the tenuous order a man (Joel Edgerton) has established with his wife and son is put to the ultimate test with the arrival of a desperate family seeking refuge. Despite the best intentions of both families, paranoia and mistrust boil over as the horrors outside creep ever-closer, awakening something hidden and monstrous within the man as he learns that the protection of his family comes at the cost of his soul.","shortDescription":"Two families forge an uneasy alliance in a house to keep evil at bay during the apocalypse.","topCast":["Joel Edgerton","Christopher Abbott","Carmen Ejogo"],"directors":["Trey Edward Shults"],"officialUrl":"http://a24films.com/films/it-comes-at-night/","qualityRating":{"ratingsBody":"TMS","value":"3"},"ratings":[{"body":"Motion Picture Association of America","code":"R"}],"advisories":["Adult Language","Adult Situations","Violence"],"runTime":"PT01H37M","preferredImage":{"width":"240","height":"360","caption":{"content":"It Comes at Night (2017)","lang":"en"},"uri":"assets/p13815943_p_v5_ab.jpg","category":"Poster Art","text":"yes","primary":"true"},"showtimes":[{"theatre":{"id":"5084","name":"Alamo Drafthouse South Lamar"},"dateTime":"2017-07-10T13:25","barg":false,"ticketURI":"http://www.fandango.com/tms.asp?t=AATHS&m=171075&d=2017-07-10"},{"theatre":{"id":"5084","name":"Alamo Drafthouse South Lamar"},"dateTime":"2017-07-10T22:40","barg":false,"ticketURI":"http://www.fandango.com/tms.asp?t=AATHS&m=171075&d=2017-07-10"}]},{"tmsId":"MV008806780000","rootId":"12798844","subType":"Feature Film","title":"Spider-Man: Homecoming 3D","releaseYear":2017,"releaseDate":"2017-07-07","titleLang":"en","descriptionLang":"en","entityType":"Movie","genres":["Action","Adventure","Fantasy"],"longDescription":"Thrilled by his experience with the Avengers, young Peter Parker returns home to live with his Aunt May. Under the watchful eye of mentor Tony Stark, Parker starts to embrace his newfound identity as Spider-Man. He also tries to return to his normal daily routine -- distracted by thoughts of proving himself to be more than just a friendly neighborhood superhero. Peter must soon put his powers to the test when the evil Vulture emerges to threaten everything that he holds dear.","shortDescription":"High school student Peter Parker embraces his new identity as Spider-Man to battle the evil Vulture.","topCast":["Tom Holland","Michael Keaton","Robert Downey Jr."],"directors":["Jon Watts"],"officialUrl":"http://www.spidermanhomecoming.com/","ratings":[{"body":"Motion Picture Association of America","code":"PG-13"}],"advisories":["Adult Language","Adult Situations","Violence"],"runTime":"PT02H14M","preferredImage":{"width":"240","height":"360","caption":{"content":"Spider-Man: Homecoming -- The IMAX 2D Experience (2017)","lang":"en"},"uri":"assets/p12798844_p_v5_ac.jpg","category":"Poster Art","text":"yes"},"showtimes":[{"theatre":{"id":"5084","name":"Alamo Drafthouse South Lamar"},"dateTime":"2017-07-10T14:45","barg":false,"ticketURI":"http://www.fandango.com/tms.asp?t=AATHS&m=161697&d=2017-07-10"},{"theatre":{"id":"11470","name":"Alamo Drafthouse Mueller"},"dateTime":"2017-07-10T15:50","barg":false,"ticketURI":"http://www.fandango.com/tms.asp?t=AAYBF&m=161697&d=2017-07-10"},{"theatre":{"id":"5320","name":"AMC Barton Creek Square 14"},"dateTime":"2017-07-10T12:00","quals":"Recliners|Reserved Seating|Descriptive Video Services|Closed Captioned|RealD 3D","barg":false,"ticketURI":"http://www.fandango.com/tms.asp?t=AANCC&m=161697&d=2017-07-10"},{"theatre":{"id":"5320","name":"AMC Barton Creek Square 14"},"dateTime":"2017-07-10T15:00","quals":"Recliners|Reserved Seating|Descriptive Video Services|Closed Captioned|RealD 3D","barg":false,"ticketURI":"http://www.fandango.com/tms.asp?t=AANCC&m=161697&d=2017-07-10"},{"theatre":{"id":"5320","name":"AMC Barton Creek Square 14"},"dateTime":"2017-07-10T18:00","quals":"Recliners|Reserved Seating|Descriptive Video Services|Closed Captioned|RealD 3D","barg":false,"ticketURI":"http://www.fandango.com/tms.asp?t=AANCC&m=161697&d=2017-07-10"},{"theatre":{"id":"5320","name":"AMC Barton Creek Square 14"},"dateTime":"2017-07-10T21:10","quals":"Recliners|Reserved Seating|Descriptive Video Services|Closed Captioned|RealD 3D","barg":false,"ticketURI":"http://www.fandango.com/tms.asp?t=AANCC&m=161697&d=2017-07-10"}]},{"tmsId":"EV000007671853","rootId":"14040867","subType":"Theatre Event","title":"Kids Camp: Trolls","titleLang":"en","entityType":"Movie","preferredImage":{"uri":"tvbanners/generic/generic_tvbanners_v5.png"},"showtimes":[{"theatre":{"id":"11470","name":"Alamo Drafthouse Mueller"},"dateTime":"2017-07-10T10:00","quals":"A.M.","barg":false,"ticketURI":"http://www.fandango.com/tms.asp?t=AAYBF&m=173061&d=2017-07-10"}]},{"tmsId":"MV009860400000","rootId":"13888273","subType":"Feature Film","title":"The Exception","releaseYear":2016,"releaseDate":"2016-09-12","titleLang":"en","descriptionLang":"en","entityType":"Movie","genres":["Historical drama","War","Romance"],"longDescription":"German soldier Stefan Brandt goes on a mission to investigate exiled German Monarch Kaiser Wilhelm II. The Kaiser lives in a secluded mansion in the Netherlands, and as Germany is taking over Holland, the country\'s authorities are concerned that Dutch spies may be watching the Kaiser. As Brandt begins to infiltrate the Kaiser\'s life in search of clues, he finds himself drawn into an unexpected and passionate romance with Mieke, one of the Kaiser\'s maids.","shortDescription":"A soldier falls for a Jewish woman while investigating a German monarch during World War II.","topCast":["Lily James","Jai Courtney","Christopher Plummer"],"directors":["David Leveaux"],"officialUrl":"https://a24films.com/films/the-exception","ratings":[{"body":"Motion Picture Association of America","code":"R"}],"advisories":["Adult Language","Adult Situations","Nudity","Violence"],"runTime":"PT01H47M","preferredImage":{"width":"240","height":"360","uri":"assets/p13888273_v_v5_aa.jpg","category":"VOD Art","text":"yes","primary":"true"},"showtimes":[{"theatre":{"id":"11546","name":"AFS Cinema"},"dateTime":"2017-07-10T16:30","barg":false},{"theatre":{"id":"11546","name":"AFS Cinema"},"dateTime":"2017-07-10T18:40","barg":false},{"theatre":{"id":"11546","name":"AFS Cinema"},"dateTime":"2017-07-10T19:00","barg":false}]},{"tmsId":"MV008578760000","rootId":"12608063","subType":"Feature Film","title":"Transformers: The Last Knight","releaseYear":2017,"releaseDate":"2017-06-21","titleLang":"en","descriptionLang":"en","entityType":"Movie","genres":["Action","Adventure","Science fiction","Fantasy"],"longDescription":"Humans are at war with the Transformers, and Optimus Prime is gone. The key to saving the future lies buried in the secrets of the past and the hidden history of Transformers on Earth. Now, it\'s up to the unlikely alliance of inventor Cade Yeager, Bumblebee, an English lord and an Oxford professor to save the world.","shortDescription":"Cade Yeager forms an unlikely alliance as the war between Transformers and humans threatens Earth.","topCast":["Mark Wahlberg","Anthony Hopkins","Josh Duhamel"],"directors":["Michael Bay"],"officialUrl":"http://www.transformersmovie.com/","qualityRating":{"ratingsBody":"TMS","value":"2"},"ratings":[{"body":"Motion Picture Association of America","code":"PG-13"}],"advisories":["Adult Language","Adult Situations","Violence"],"runTime":"PT02H29M","preferredImage":{"width":"240","height":"360","caption":{"content":"Transformers: The Last Knight (2017)","lang":"en"},"uri":"assets/p12608063_p_v5_ai.jpg","category":"Poster Art","text":"yes","primary":"true"},"showtimes":[{"theatre":{"id":"8298","name":"Regal Westgate Stadium 11"},"dateTime":"2017-07-10T10:05","quals":"Descriptive Video Services|Closed Captioned","barg":true,"ticketURI":"http://www.fandango.com/tms.asp?t=AANOT&m=159489&d=2017-07-10"},{"theatre":{"id":"8298","name":"Regal Westgate Stadium 11"},"dateTime":"2017-07-10T12:45","quals":"Descriptive Video Services|Closed Captioned","barg":true,"ticketURI":"http://www.fandango.com/tms.asp?t=AANOT&m=159489&d=2017-07-10"},{"theatre":{"id":"8298","name":"Regal Westgate Stadium 11"},"dateTime":"2017-07-10T16:00","quals":"Descriptive Video Services|Closed Captioned","barg":true,"ticketURI":"http://www.fandango.com/tms.asp?t=AANOT&m=159489&d=2017-07-10"},{"theatre":{"id":"8298","name":"Regal Westgate Stadium 11"},"dateTime":"2017-07-10T19:15","quals":"Descriptive Video Services|Closed Captioned","barg":false,"ticketURI":"http://www.fandango.com/tms.asp?t=AANOT&m=159489&d=2017-07-10"},{"theatre":{"id":"8298","name":"Regal Westgate Stadium 11"},"dateTime":"2017-07-10T22:10","quals":"Descriptive Video Services|Closed Captioned","barg":false,"ticketURI":"http://www.fandango.com/tms.asp?t=AANOT&m=159489&d=2017-07-10"},{"theatre":{"id":"5320","name":"AMC Barton Creek Square 14"},"dateTime":"2017-07-10T11:50","quals":"Recliners|Reserved Seating|Descriptive Video Services|Closed Captioned","barg":false,"ticketURI":"http://www.fandango.com/tms.asp?t=AANCC&m=159489&d=2017-07-10"},{"theatre":{"id":"5320","name":"AMC Barton Creek Square 14"},"dateTime":"2017-07-10T15:20","quals":"Reserved Seating|Descriptive Video Services|Closed Captioned|Recliners","barg":false,"ticketURI":"http://www.fandango.com/tms.asp?t=AANCC&m=159489&d=2017-07-10"},{"theatre":{"id":"5320","name":"AMC Barton Creek Square 14"},"dateTime":"2017-07-10T18:40","quals":"Recliners|Reserved Seating|Descriptive Video Services|Closed Captioned","barg":false,"ticketURI":"http://www.fandango.com/tms.asp?t=AANCC&m=159489&d=2017-07-10"},{"theatre":{"id":"5320","name":"AMC Barton Creek Square 14"},"dateTime":"2017-07-10T22:00","quals":"Recliners|Reserved Seating|Descriptive Video Services|Closed Captioned","barg":false,"ticketURI":"http://www.fandango.com/tms.asp?t=AANCC&m=159489&d=2017-07-10"},{"theatre":{"id":"8749","name":"Galaxy Highland"},"dateTime":"2017-07-10T12:00","quals":"Closed Captioned|Hearing Impaired|Descriptive Audio Services","barg":false},{"theatre":{"id":"8749","name":"Galaxy Highland"},"dateTime":"2017-07-10T15:35","quals":"Closed Captioned|Hearing Impaired|Descriptive Audio Services","barg":false},{"theatre":{"id":"8749","name":"Galaxy Highland"},"dateTime":"2017-07-10T18:50","quals":"Closed Captioned|Hearing Impaired|Descriptive Audio Services","barg":false},{"theatre":{"id":"8749","name":"Galaxy Highland"},"dateTime":"2017-07-10T21:55","quals":"Closed Captioned|Hearing Impaired|Descriptive Audio Services","barg":false}]},{"tmsId":"MV009046910000","rootId":"13019536","subType":"Feature Film","title":"The House","releaseYear":2017,"releaseDate":"2017-06-30","titleLang":"en","descriptionLang":"en","entityType":"Movie","genres":["Comedy"],"longDescription":"Scott and Kate Johansen must figure out a way to earn some money after their daughter\'s scholarship falls through. When all else fails, the desperate couple join forces with their neighbor Frank to start an underground casino in his home. As the cash rolls in and the good times fly, Scott and Kate soon learn that they may have bitten off more than they can chew.","shortDescription":"A couple and their neighbor start an underground casino in their suburban neighborhood.","topCast":["Will Ferrell","Amy Poehler","Jason Mantzoukas"],"directors":["Andrew Jay Cohen"],"officialUrl":"http://www.thehousemovie.com/","ratings":[{"body":"Motion Picture Association of America","code":"R"}],"advisories":["Adult Language","Adult Situations","Brief Nudity","Violence"],"runTime":"PT01H28M","preferredImage":{"width":"240","height":"360","caption":{"content":"The House (2017)","lang":"en"},"uri":"assets/p13019536_p_v5_aa.jpg","category":"Poster Art","text":"yes","primary":"true"},"showtimes":[{"theatre":{"id":"8298","name":"Regal Westgate Stadium 11"},"dateTime":"2017-07-10T10:30","quals":"Descriptive Video Services|Closed Captioned","barg":true,"ticketURI":"http://www.fandango.com/tms.asp?t=AANOT&m=169891&d=2017-07-10"},{"theatre":{"id":"8298","name":"Regal Westgate Stadium 11"},"dateTime":"2017-07-10T13:15","quals":"Descriptive Video Services|Closed Captioned","barg":true,"ticketURI":"http://www.fandango.com/tms.asp?t=AANOT&m=169891&d=2017-07-10"},{"theatre":{"id":"8298","name":"Regal Westgate Stadium 11"},"dateTime":"2017-07-10T16:45","quals":"Descriptive Video Services|Closed Captioned","barg":true,"ticketURI":"http://www.fandango.com/tms.asp?t=AANOT&m=169891&d=2017-07-10"},{"theatre":{"id":"8298","name":"Regal Westgate Stadium 11"},"dateTime":"2017-07-10T20:00","quals":"Descriptive Video Services|Closed Captioned","barg":false,"ticketURI":"http://www.fandango.com/tms.asp?t=AANOT&m=169891&d=2017-07-10"},{"theatre":{"id":"8298","name":"Regal Westgate Stadium 11"},"dateTime":"2017-07-10T22:25","quals":"Descriptive Video Services|Closed Captioned","barg":false,"ticketURI":"http://www.fandango.com/tms.asp?t=AANOT&m=169891&d=2017-07-10"},{"theatre":{"id":"5320","name":"AMC Barton Creek Square 14"},"dateTime":"2017-07-10T11:30","quals":"Recliners|Reserved Seating|Descriptive Video Services|Closed Captioned","barg":false,"ticketURI":"http://www.fandango.com/tms.asp?t=AANCC&m=169891&d=2017-07-10"},{"theatre":{"id":"5320","name":"AMC Barton Creek Square 14"},"dateTime":"2017-07-10T14:10","quals":"Recliners|Reserved Seating|Descriptive Video Services|Closed Captioned","barg":false,"ticketURI":"http://www.fandango.com/tms.asp?t=AANCC&m=169891&d=2017-07-10"},{"theatre":{"id":"5320","name":"AMC Barton Creek Square 14"},"dateTime":"2017-07-10T16:30","quals":"Recliners|Reserved Seating|Descriptive Video Services|Closed Captioned","barg":false,"ticketURI":"http://www.fandango.com/tms.asp?t=AANCC&m=169891&d=2017-07-10"},{"theatre":{"id":"5320","name":"AMC Barton Creek Square 14"},"dateTime":"2017-07-10T19:10","quals":"Recliners|Reserved Seating|Descriptive Video Services|Closed Captioned","barg":false,"ticketURI":"http://www.fandango.com/tms.asp?t=AANCC&m=169891&d=2017-07-10"},{"theatre":{"id":"5320","name":"AMC Barton Creek Square 14"},"dateTime":"2017-07-10T21:30","quals":"Recliners|Reserved Seating|Descriptive Video Services|Closed Captioned","barg":false,"ticketURI":"http://www.fandango.com/tms.asp?t=AANCC&m=169891&d=2017-07-10"},{"theatre":{"id":"8749","name":"Galaxy Highland"},"dateTime":"2017-07-10T12:15","quals":"Closed Captioned|Hearing Impaired|Descriptive Audio Services","barg":false},{"theatre":{"id":"8749","name":"Galaxy Highland"},"dateTime":"2017-07-10T14:20","quals":"Closed Captioned|Hearing Impaired|Descriptive Audio Services","barg":false}]},{"tmsId":"MV008131280000","rootId":"12216968","subType":"Feature Film","title":"Cars 3","releaseYear":2017,"releaseDate":"2017-06-16","titleLang":"en","descriptionLang":"en","entityType":"Movie","genres":["Comedy","Adventure","Animated","Children"],"audience":"Children","longDescription":"Blindsided by a new generation of blazing-fast cars, the legendary Lighting McQueen finds himself pushed out of the sport that he loves. Hoping to get back in the game, he turns to Cruz Ramirez, an eager young technician who has her own plans for winning. With inspiration from the Fabulous Hudson Hornet and a few unexpected turns, No. 95 prepares to compete on Piston Cup Racing\'s biggest stage.","shortDescription":"The legendary Lightning McQueen prepares to compete on Piston Cup Racing\'s biggest stage.","topCast":["Owen Wilson","Cristela Alonzo","Armie Hammer"],"directors":["Brian Fee"],"officialUrl":"http://movies.disney.com/cars-3","qualityRating":{"ratingsBody":"TMS","value":"2.5"},"ratings":[{"body":"Motion Picture Association of America","code":"G"}],"runTime":"PT01H49M","animation":"Animated","preferredImage":{"width":"240","height":"360","caption":{"content":"Cars 3: The IMAX 2D Experience (2017)","lang":"en"},"uri":"assets/p12216968_p_v5_ad.jpg","category":"Poster Art","text":"yes","primary":"true"},"showtimes":[{"theatre":{"id":"8298","name":"Regal Westgate Stadium 11"},"dateTime":"2017-07-10T10:30","quals":"Descriptive Video Services|Closed Captioned","barg":true,"ticketURI":"http://www.fandango.com/tms.asp?t=AANOT&m=155973&d=2017-07-10"},{"theatre":{"id":"8298","name":"Regal Westgate Stadium 11"},"dateTime":"2017-07-10T14:20","quals":"Descriptive Video Services|Closed Captioned","barg":true,"ticketURI":"http://www.fandango.com/tms.asp?t=AANOT&m=155973&d=2017-07-10"},{"theatre":{"id":"8298","name":"Regal Westgate Stadium 11"},"dateTime":"2017-07-10T16:55","quals":"Descriptive Video Services|Closed Captioned","barg":true,"ticketURI":"http://www.fandango.com/tms.asp?t=AANOT&m=155973&d=2017-07-10"},{"theatre":{"id":"8298","name":"Regal Westgate Stadium 11"},"dateTime":"2017-07-10T19:30","quals":"Descriptive Video Services|Closed Captioned","barg":false,"ticketURI":"http://www.fandango.com/tms.asp?t=AANOT&m=155973&d=2017-07-10"},{"theatre":{"id":"8298","name":"Regal Westgate Stadium 11"},"dateTime":"2017-07-10T22:05","quals":"Descriptive Video Services|Closed Captioned","barg":false,"ticketURI":"http://www.fandango.com/tms.asp?t=AANOT&m=155973&d=2017-07-10"},{"theatre":{"id":"8749","name":"Galaxy Highland"},"dateTime":"2017-07-10T13:25","quals":"Closed Captioned|Hearing Impaired|Descriptive Audio Services","barg":false},{"theatre":{"id":"8749","name":"Galaxy Highland"},"dateTime":"2017-07-10T16:05","quals":"Closed Captioned|Hearing Impaired","barg":false},{"theatre":{"id":"8749","name":"Galaxy Highland"},"dateTime":"2017-07-10T18:45","quals":"Closed Captioned|Hearing Impaired","barg":false},{"theatre":{"id":"8749","name":"Galaxy Highland"},"dateTime":"2017-07-10T21:30","quals":"Closed Captioned|Hearing Impaired","barg":false}]},{"tmsId":"MV009819630000","rootId":"13042513","subType":"Feature Film","title":"47 Meters Down","releaseYear":2016,"releaseDate":"2016","titleLang":"en","descriptionLang":"en","entityType":"Movie","genres":["Thriller","Horror","Adventure"],"longDescription":"Young sisters Kate and Lisa and travel to Mexico for a vacation filled with sun, fun and adventure. Lisa needs some extra persuasion when Kate suggests that they go diving in shark-infested waters. Safe in their protective cage, the thrill-seeking siblings come face to face with a group of majestic great whites. Their worst fears soon become a reality when the cage breaks away from their boat, sending them plummeting to the ocean floor with a dwindling supply of oxygen.","shortDescription":"Great white sharks circle two sisters after they become trapped in a cage on the ocean floor.","topCast":["Claire Holt","Mandy Moore","Chris J. Johnson"],"directors":["Johannes Roberts"],"qualityRating":{"ratingsBody":"TMS","value":"2.5"},"ratings":[{"body":"Motion Picture Association of America","code":"PG-13"}],"advisories":["Adult Language","Adult Situations","Violence"],"runTime":"PT01H29M","preferredImage":{"width":"240","height":"360","caption":{"content":"47 Meters Down (2016)","lang":"en"},"uri":"assets/p13042513_p_v5_ad.jpg","category":"Poster Art","text":"yes","primary":"true"},"showtimes":[{"theatre":{"id":"8298","name":"Regal Westgate Stadium 11"},"dateTime":"2017-07-10T11:15","quals":"Descriptive Video Services|Closed Captioned","barg":true,"ticketURI":"http://www.fandango.com/tms.asp?t=AANOT&m=171468&d=2017-07-10"},{"theatre":{"id":"8298","name":"Regal Westgate Stadium 11"},"dateTime":"2017-07-10T13:30","quals":"Descriptive Video Services|Closed Captioned","barg":true,"ticketURI":"http://www.fandango.com/tms.asp?t=AANOT&m=171468&d=2017-07-10"},{"theatre":{"id":"8298","name":"Regal Westgate Stadium 11"},"dateTime":"2017-07-10T15:45","quals":"Descriptive Video Services|Closed Captioned","barg":true,"ticketURI":"http://www.fandango.com/tms.asp?t=AANOT&m=171468&d=2017-07-10"},{"theatre":{"id":"8298","name":"Regal Westgate Stadium 11"},"dateTime":"2017-07-10T20:15","quals":"Descriptive Video Services|Closed Captioned","barg":false,"ticketURI":"http://www.fandango.com/tms.asp?t=AANOT&m=171468&d=2017-07-10"},{"theatre":{"id":"5320","name":"AMC Barton Creek Square 14"},"dateTime":"2017-07-10T11:20","quals":"Recliners|Reserved Seating|AMC Independent|Closed Captioned","barg":false,"ticketURI":"http://www.fandango.com/tms.asp?t=AANCC&m=171468&d=2017-07-10"},{"theatre":{"id":"5320","name":"AMC Barton Creek Square 14"},"dateTime":"2017-07-10T13:50","quals":"Recliners|Reserved Seating|AMC Independent|Closed Captioned","barg":false,"ticketURI":"http://www.fandango.com/tms.asp?t=AANCC&m=171468&d=2017-07-10"},{"theatre":{"id":"5320","name":"AMC Barton Creek Square 14"},"dateTime":"2017-07-10T16:30","quals":"Recliners|Reserved Seating|AMC Independent|Closed Captioned","barg":false,"ticketURI":"http://www.fandango.com/tms.asp?t=AANCC&m=171468&d=2017-07-10"},{"theatre":{"id":"5320","name":"AMC Barton Creek Square 14"},"dateTime":"2017-07-10T18:50","quals":"Recliners|Reserved Seating|AMC Independent|Closed Captioned","barg":false,"ticketURI":"http://www.fandango.com/tms.asp?t=AANCC&m=171468&d=2017-07-10"},{"theatre":{"id":"5320","name":"AMC Barton Creek Square 14"},"dateTime":"2017-07-10T21:40","quals":"Recliners|Reserved Seating|AMC Independent|Closed Captioned","barg":false,"ticketURI":"http://www.fandango.com/tms.asp?t=AANCC&m=171468&d=2017-07-10"}]},{"tmsId":"MV007898150000","rootId":"12009522","subType":"Feature Film","title":"Despicable Me 3 3D","releaseYear":2017,"releaseDate":"2017-06-30","titleLang":"en","descriptionLang":"en","entityType":"Movie","genres":["Comedy","Adventure","Animated","Children"],"audience":"Children","longDescription":"The mischievous Minions hope that Gru will return to a life of crime after the new boss of the Anti-Villain League fires him. Instead, Gru decides to remain retired and travel to Freedonia to meet his long-lost twin brother for the first time. The reunited siblings soon find themselves in an uneasy alliance to take down the elusive Balthazar Bratt, a former 1980s child star who seeks revenge against the world.","shortDescription":"Gru and his twin brother join forces to take down a former 1980s child star who\'s out for revenge.","topCast":["Steve Carell","Kristen Wiig","Trey Parker"],"directors":["Pierre Coffin","Kyle Balda"],"officialUrl":"http://www.despicable.me/","ratings":[{"body":"Motion Picture Association of America","code":"PG"}],"advisories":["Adult Situations"],"runTime":"PT01H30M","animation":"Animated","preferredImage":{"width":"240","height":"360","caption":{"content":"Despicable Me 3 3D (2017)","lang":"en"},"uri":"assets/p12009522_p_v5_ae.jpg","category":"Poster Art","text":"yes"},"showtimes":[{"theatre":{"id":"5320","name":"AMC Barton Creek Square 14"},"dateTime":"2017-07-10T10:30","quals":"Recliners|Reserved Seating|Descriptive Video Services|Closed Captioned|RealD 3D","barg":false,"ticketURI":"http://www.fandango.com/tms.asp?t=AANCC&m=153153&d=2017-07-10"},{"theatre":{"id":"5320","name":"AMC Barton Creek Square 14"},"dateTime":"2017-07-10T12:50","quals":"Recliners|Reserved Seating|Descriptive Video Services|Closed Captioned|RealD 3D","barg":false,"ticketURI":"http://www.fandango.com/tms.asp?t=AANCC&m=153153&d=2017-07-10"},{"theatre":{"id":"5320","name":"AMC Barton Creek Square 14"},"dateTime":"2017-07-10T15:10","quals":"Recliners|Reserved Seating|Descriptive Video Services|Closed Captioned|RealD 3D","barg":false,"ticketURI":"http://www.fandango.com/tms.asp?t=AANCC&m=153153&d=2017-07-10"},{"theatre":{"id":"5320","name":"AMC Barton Creek Square 14"},"dateTime":"2017-07-10T17:30","quals":"Recliners|Reserved Seating|Descriptive Video Services|Closed Captioned|RealD 3D","barg":false,"ticketURI":"http://www.fandango.com/tms.asp?t=AANCC&m=153153&d=2017-07-10"},{"theatre":{"id":"5320","name":"AMC Barton Creek Square 14"},"dateTime":"2017-07-10T20:00","quals":"Recliners|Reserved Seating|Descriptive Video Services|Closed Captioned|RealD 3D","barg":false,"ticketURI":"http://www.fandango.com/tms.asp?t=AANCC&m=153153&d=2017-07-10"},{"theatre":{"id":"5320","name":"AMC Barton Creek Square 14"},"dateTime":"2017-07-10T22:20","quals":"Recliners|Reserved Seating|Descriptive Video Services|Closed Captioned|RealD 3D","barg":false,"ticketURI":"http://www.fandango.com/tms.asp?t=AANCC&m=153153&d=2017-07-10"}]},{"tmsId":"MV010091220000","rootId":"14191350","subType":"Feature Film","title":"Hickok","releaseYear":2017,"releaseDate":"2017-07-07","titleLang":"en","descriptionLang":"en","entityType":"Movie","genres":["Western","Action"],"longDescription":"Legendary gunslinger \\"Wild Bill\\" Hickok looks to leave the past behind him by settling in the small town of Abilene, Kan., and becoming the marshal. His unparalleled skills are soon put to the test when he finds himself in a showdown with a gang of outlaws and the powerful saloon owner who put a bounty on his head.","shortDescription":"Legendary gunslinger \\"Wild Bill\\" Hickok takes on a gang of outlaws in a small Kansas town.","topCast":["Luke Hemsworth","Kris Kristofferson","Trace Adkins"],"directors":["Timothy Woodward Jr."],"advisories":["Adult Language","Adult Situations","Graphic Violence"],"runTime":"PT01H28M","preferredImage":{"width":"240","height":"360","caption":{"content":"Hickok (2017)","lang":"en"},"uri":"assets/p14191350_p_v5_ab.jpg","category":"Poster Art","text":"yes","primary":"true"},"showtimes":[{"theatre":{"id":"8749","name":"Galaxy Highland"},"dateTime":"2017-07-10T16:30","barg":false},{"theatre":{"id":"8749","name":"Galaxy Highland"},"dateTime":"2017-07-10T19:00","barg":false}]}]'
p30
sS'encoding'
p31
S'UTF-8'
p32
sS'url'
p33
Vhttp://data.tmsapi.com/v1.1/movies/showings?startDate=2017-07-10&api_key=t6ubhgkku8gu397wbnpjkb4j&zip=78701
p34
sS'status_code'
p35
I200
sS'request'
p36
g0
(crequests.models
PreparedRequest
p37
g2
Ntp38
Rp39
(dp40
S'body'
p41
Nsg33
S'http://data.tmsapi.com/v1.1/movies/showings?startDate=2017-07-10&api_key=t6ubhgkku8gu397wbnpjkb4j&zip=78701'
p42
sS'hooks'
p43
(dp44
S'response'
p45
(lp46
ssS'headers'
p47
g0
(crequests.structures
CaseInsensitiveDict
p48
g2
Ntp49
Rp50
(dp51
S'_store'
p52
curllib3.packages.ordered_dict
OrderedDict
p53
((lp54
(lp55
S'connection'
p56
a(S'Connection'
p57
S'keep-alive'
p58
tp59
aa(lp60
S'accept-encoding'
p61
a(S'Accept-Encoding'
p62
S'gzip, deflate'
p63
tp64
aa(lp65
S'accept'
p66
a(S'Accept'
p67
S'*/*'
p68
tp69
aa(lp70
S'user-agent'
p71
a(S'User-Agent'
p72
S'python-requests/2.18.1'
p73
tp74
aatp75
Rp76
sbsS'_body_position'
p77
Nsg27
g0
(g7
g2
Ntp78
Rp79
(dp80
g11
I1499712484
sg12
(icookielib
DefaultCookiePolicy
p81
(dp82
g15
I01
sg16
I0
sg17
Nsg18
Nsg19
I00
sg20
I00
sg11
I1499712484
sg21
I00
sg22
I00
sg23
I00
sg24
I00
sg25
(tsg26
I01
sbsg27
(dp83
sbsS'method'
p84
S'GET'
p85
sbsS'elapsed'
p86
cdatetime
timedelta
p87
(I0
I1
I194167
tp88
Rp89
sg47
g0
(g48
g2
Ntp90
Rp91
(dp92
g52
g53
((lp93
(lp94
S'cache-control'
p95
a(S'Cache-Control'
p96
S'max-age=900'
p97
tp98
aa(lp99
S'content-encoding'
p100
a(S'Content-Encoding'
p101
S'gzip'
p102
tp103
aa(lp104
S'content-type'
p105
a(S'Content-Type'
p106
S'application/json;charset=UTF-8'
p107
tp108
aa(lp109
S'date'
p110
a(S'Date'
p111
S'Mon, 10 Jul 2017 18:48:04 GMT'
p112
tp113
aa(lp114
S'server'
p115
a(S'Server'
p116
S'Apache'
p117
tp118
aa(lp119
S'vary'
p120
a(S'Vary'
p121
S'Accept-Encoding'
p122
tp123
aa(lp124
S'x-mashery-responder'
p125
a(S'X-Mashery-Responder'
p126
S'prod-j-worker-ein1888-us-west-1b-66.mashery.com'
p127
tp128
aa(lp129
S'x-powered-by'
p130
a(S'X-Powered-By'
p131
S'PHP/5.5.9-1ubuntu4.19'
p132
tp133
aa(lp134
S'transfer-encoding'
p135
a(S'transfer-encoding'
p136
S'chunked'
p137
tp138
aa(lp139
S'connection'
p140
a(S'Connection'
p141
S'keep-alive'
p142
tp143
aatp144
Rp145
sbsS'reason'
p146
S'OK'
p147
sS'history'
p148
(lp149
sb.