ccopy_reg
_reconstructor
p0
(crequests.models
Response
p1
c__builtin__
object
p2
Ntp3
Rp4
(dp5
S'cookies'
p6
g0
(crequests.cookies
RequestsCookieJar
p7
g2
Ntp8
Rp9
(dp10
S'_now'
p11
I1500390810
sS'_policy'
p12
(icookielib
DefaultCookiePolicy
p13
(dp14
S'strict_rfc2965_unverifiable'
p15
I01
sS'strict_ns_domain'
p16
I0
sS'_allowed_domains'
p17
NsS'rfc2109_as_netscape'
p18
NsS'rfc2965'
p19
I00
sS'strict_domain'
p20
I00
sg11
I1500390810
sS'strict_ns_set_path'
p21
I00
sS'strict_ns_unverifiable'
p22
I00
sS'strict_ns_set_initial_dollar'
p23
I00
sS'hide_cookie2'
p24
I00
sS'_blocked_domains'
p25
(tsS'netscape'
p26
I01
sbsS'_cookies'
p27
(dp28
sbsS'_content'
p29
S'[{"tmsId":"MV008029970000","rootId":"12126545","subType":"Feature Film","title":"War for the Planet of the Apes","releaseYear":2017,"releaseDate":"2017-07-14","titleLang":"en","descriptionLang":"en","entityType":"Movie","genres":["Science fiction","Action","Adventure"],"longDescription":"Caesar (Andy Serkis) and his apes are forced into a deadly conflict with an army of humans led by a ruthless colonel (Woody Harrelson). After the apes suffer unimaginable losses, Caesar wrestles with his darker instincts and begins his own mythic quest to avenge his kind. As the journey finally brings them face to face, Caesar and the colonel are pitted against each other in an epic battle that will determine the fate of both of their species and the future of the planet.","shortDescription":"A colonel leads his troops in a deadly battle against Caesar and his army of intelligent apes.","topCast":["Andy Serkis","Woody Harrelson","Steve Zahn"],"directors":["Matt Reeves"],"officialUrl":"http://www.foxmovies.com/movies/war-for-the-planet-of-the-apes","qualityRating":{"ratingsBody":"TMS","value":"3.5"},"ratings":[{"body":"Motion Picture Association of America","code":"PG-13"}],"advisories":["Adult Situations","Violence"],"runTime":"PT02H22M","preferredImage":{"width":"240","height":"360","uri":"assets/p12126545_v_v5_aa.jpg","category":"VOD Art","text":"yes","primary":"true"},"showtimes":[{"theatre":{"id":"8298","name":"Regal Westgate Stadium 11"},"dateTime":"2017-07-19T10:00","quals":"Descriptive Video Services|No Passes|Closed Captioned","barg":true,"ticketURI":"http://www.fandango.com/tms.asp?t=AANOT&m=154458&d=2017-07-19"},{"theatre":{"id":"8298","name":"Regal Westgate Stadium 11"},"dateTime":"2017-07-19T11:00","quals":"Descriptive Video Services|No Passes|Closed Captioned","barg":true,"ticketURI":"http://www.fandango.com/tms.asp?t=AANOT&m=154458&d=2017-07-19"},{"theatre":{"id":"8298","name":"Regal Westgate Stadium 11"},"dateTime":"2017-07-19T12:45","quals":"Closed Captioned|Descriptive Video Services|No Passes","barg":true,"ticketURI":"http://www.fandango.com/tms.asp?t=AANOT&m=154458&d=2017-07-19"},{"theatre":{"id":"8298","name":"Regal Westgate Stadium 11"},"dateTime":"2017-07-19T14:55","quals":"Descriptive Video Services|No Passes|Closed Captioned","barg":true,"ticketURI":"http://www.fandango.com/tms.asp?t=AANOT&m=154458&d=2017-07-19"},{"theatre":{"id":"8298","name":"Regal Westgate Stadium 11"},"dateTime":"2017-07-19T15:50","quals":"Descriptive Video Services|No Passes|Closed Captioned","barg":true,"ticketURI":"http://www.fandango.com/tms.asp?t=AANOT&m=154458&d=2017-07-19"},{"theatre":{"id":"8298","name":"Regal Westgate Stadium 11"},"dateTime":"2017-07-19T18:00","quals":"Closed Captioned|Descriptive Video Services|No Passes","barg":false,"ticketURI":"http://www.fandango.com/tms.asp?t=AANOT&m=154458&d=2017-07-19"},{"theatre":{"id":"8298","name":"Regal Westgate Stadium 11"},"dateTime":"2017-07-19T19:00","quals":"No Passes|Descriptive Video Services|Closed Captioned","barg":false,"ticketURI":"http://www.fandango.com/tms.asp?t=AANOT&m=154458&d=2017-07-19"},{"theatre":{"id":"8298","name":"Regal Westgate Stadium 11"},"dateTime":"2017-07-19T21:05","quals":"No Passes|Closed Captioned|Descriptive Video Services","barg":false,"ticketURI":"http://www.fandango.com/tms.asp?t=AANOT&m=154458&d=2017-07-19"},{"theatre":{"id":"8298","name":"Regal Westgate Stadium 11"},"dateTime":"2017-07-19T22:05","quals":"Descriptive Video Services|No Passes|Closed Captioned","barg":false,"ticketURI":"http://www.fandango.com/tms.asp?t=AANOT&m=154458&d=2017-07-19"},{"theatre":{"id":"8498","name":"Regal Metropolitan Stadium 14"},"dateTime":"2017-07-19T13:40","quals":"Descriptive Video Services|No Passes|Closed Captioned","barg":true,"ticketURI":"http://www.fandango.com/tms.asp?t=AALHE&m=154458&d=2017-07-19"},{"theatre":{"id":"8498","name":"Regal Metropolitan Stadium 14"},"dateTime":"2017-07-19T17:10","quals":"Descriptive Video Services|No Passes|Closed Captioned","barg":true,"ticketURI":"http://www.fandango.com/tms.asp?t=AALHE&m=154458&d=2017-07-19"},{"theatre":{"id":"8498","name":"Regal Metropolitan Stadium 14"},"dateTime":"2017-07-19T20:30","quals":"Descriptive Video Services|No Passes|Closed Captioned","barg":false,"ticketURI":"http://www.fandango.com/tms.asp?t=AALHE&m=154458&d=2017-07-19"},{"theatre":{"id":"9306","name":"Cinemark Southpark Meadows"},"dateTime":"2017-07-19T09:50","quals":"Reserved Seating|Lounger|Closed Captioned","barg":false,"ticketURI":"http://www.fandango.com/tms.asp?t=AAUIY&m=154458&d=2017-07-19"},{"theatre":{"id":"9306","name":"Cinemark Southpark Meadows"},"dateTime":"2017-07-19T11:30","quals":"Reserved Seating|Lounger|Closed Captioned","barg":false,"ticketURI":"http://www.fandango.com/tms.asp?t=AAUIY&m=154458&d=2017-07-19"},{"theatre":{"id":"9306","name":"Cinemark Southpark Meadows"},"dateTime":"2017-07-19T13:10","quals":"Reserved Seating|Lounger|Closed Captioned","barg":false,"ticketURI":"http://www.fandango.com/tms.asp?t=AAUIY&m=154458&d=2017-07-19"},{"theatre":{"id":"9306","name":"Cinemark Southpark Meadows"},"dateTime":"2017-07-19T16:30","quals":"Reserved Seating|Lounger|Closed Captioned","barg":false,"ticketURI":"http://www.fandango.com/tms.asp?t=AAUIY&m=154458&d=2017-07-19"},{"theatre":{"id":"9306","name":"Cinemark Southpark Meadows"},"dateTime":"2017-07-19T19:50","quals":"Reserved Seating|Lounger|Closed Captioned","barg":false,"ticketURI":"http://www.fandango.com/tms.asp?t=AAUIY&m=154458&d=2017-07-19"},{"theatre":{"id":"5084","name":"Alamo Drafthouse South Lamar"},"dateTime":"2017-07-19T10:15","barg":false,"ticketURI":"http://www.fandango.com/tms.asp?t=AATHS&m=154458&d=2017-07-19"},{"theatre":{"id":"5084","name":"Alamo Drafthouse South Lamar"},"dateTime":"2017-07-19T12:35","barg":false,"ticketURI":"http://www.fandango.com/tms.asp?t=AATHS&m=154458&d=2017-07-19"},{"theatre":{"id":"5084","name":"Alamo Drafthouse South Lamar"},"dateTime":"2017-07-19T15:55","barg":false,"ticketURI":"http://www.fandango.com/tms.asp?t=AATHS&m=154458&d=2017-07-19"},{"theatre":{"id":"5084","name":"Alamo Drafthouse South Lamar"},"dateTime":"2017-07-19T18:45","barg":false,"ticketURI":"http://www.fandango.com/tms.asp?t=AATHS&m=154458&d=2017-07-19"},{"theatre":{"id":"5084","name":"Alamo Drafthouse South Lamar"},"dateTime":"2017-07-19T22:10","barg":false,"ticketURI":"http://www.fandango.com/tms.asp?t=AATHS&m=154458&d=2017-07-19"},{"theatre":{"id":"10569","name":"Alamo Drafthouse Slaughter Lane"},"dateTime":"2017-07-19T11:45","barg":false,"ticketURI":"http://www.fandango.com/tms.asp?t=AAWQE&m=154458&d=2017-07-19"},{"theatre":{"id":"10569","name":"Alamo Drafthouse Slaughter Lane"},"dateTime":"2017-07-19T12:25","barg":false,"ticketURI":"http://www.fandango.com/tms.asp?t=AAWQE&m=154458&d=2017-07-19"},{"theatre":{"id":"10569","name":"Alamo Drafthouse Slaughter Lane"},"dateTime":"2017-07-19T15:45","barg":false,"ticketURI":"http://www.fandango.com/tms.asp?t=AAWQE&m=154458&d=2017-07-19"},{"theatre":{"id":"10569","name":"Alamo Drafthouse Slaughter Lane"},"dateTime":"2017-07-19T16:10","barg":false,"ticketURI":"http://www.fandango.com/tms.asp?t=AAWQE&m=154458&d=2017-07-19"},{"theatre":{"id":"10569","name":"Alamo Drafthouse Slaughter Lane"},"dateTime":"2017-07-19T19:35","barg":false,"ticketURI":"http://www.fandango.com/tms.asp?t=AAWQE&m=154458&d=2017-07-19"},{"theatre":{"id":"10569","name":"Alamo Drafthouse Slaughter Lane"},"dateTime":"2017-07-19T22:25","barg":false,"ticketURI":"http://www.fandango.com/tms.asp?t=AAWQE&m=154458&d=2017-07-19"},{"theatre":{"id":"10569","name":"Alamo Drafthouse Slaughter Lane"},"dateTime":"2017-07-19T22:55","barg":false,"ticketURI":"http://www.fandango.com/tms.asp?t=AAWQE&m=154458&d=2017-07-19"}]},{"tmsId":"MV007898130000","rootId":"12009522","subType":"Feature Film","title":"Despicable Me 3","releaseYear":2017,"releaseDate":"2017-06-30","titleLang":"en","descriptionLang":"en","entityType":"Movie","genres":["Comedy","Adventure","Animated","Children"],"audience":"Children","longDescription":"The mischievous Minions hope that Gru will return to a life of crime after the new boss of the Anti-Villain League fires him. Instead, Gru decides to remain retired and travel to Freedonia to meet his long-lost twin brother for the first time. The reunited siblings soon find themselves in an uneasy alliance to take down the elusive Balthazar Bratt, a former 1980s child star who seeks revenge against the world.","shortDescription":"Gru and his twin brother join forces to take down a former 1980s child star who\'s out for revenge.","topCast":["Steve Carell","Kristen Wiig","Trey Parker"],"directors":["Pierre Coffin","Kyle Balda"],"officialUrl":"http://www.despicable.me/","qualityRating":{"ratingsBody":"TMS","value":"2.5"},"ratings":[{"body":"Motion Picture Association of America","code":"PG"}],"advisories":["Adult Situations"],"runTime":"PT01H30M","animation":"Animated","preferredImage":{"width":"240","height":"360","caption":{"content":"Despicable Me 3 (2017)","lang":"en"},"uri":"assets/p12009522_p_v5_ac.jpg","category":"Poster Art","text":"yes","primary":"true"},"showtimes":[{"theatre":{"id":"8298","name":"Regal Westgate Stadium 11"},"dateTime":"2017-07-19T10:00","quals":"Descriptive Video Services|Closed Captioned","barg":true,"ticketURI":"http://www.fandango.com/tms.asp?t=AANOT&m=153152&d=2017-07-19"},{"theatre":{"id":"8298","name":"Regal Westgate Stadium 11"},"dateTime":"2017-07-19T10:30","quals":"Descriptive Video Services|Closed Captioned","barg":true,"ticketURI":"http://www.fandango.com/tms.asp?t=AANOT&m=153152&d=2017-07-19"},{"theatre":{"id":"8298","name":"Regal Westgate Stadium 11"},"dateTime":"2017-07-19T12:45","quals":"Descriptive Video Services|Closed Captioned","barg":true,"ticketURI":"http://www.fandango.com/tms.asp?t=AANOT&m=153152&d=2017-07-19"},{"theatre":{"id":"8298","name":"Regal Westgate Stadium 11"},"dateTime":"2017-07-19T13:30","quals":"Descriptive Video Services|Closed Captioned","barg":true,"ticketURI":"http://www.fandango.com/tms.asp?t=AANOT&m=153152&d=2017-07-19"},{"theatre":{"id":"8298","name":"Regal Westgate Stadium 11"},"dateTime":"2017-07-19T15:00","quals":"Descriptive Video Services|Closed Captioned","barg":true,"ticketURI":"http://www.fandango.com/tms.asp?t=AANOT&m=153152&d=2017-07-19"},{"theatre":{"id":"8298","name":"Regal Westgate Stadium 11"},"dateTime":"2017-07-19T15:45","quals":"Descriptive Video Services|Closed Captioned","barg":true,"ticketURI":"http://www.fandango.com/tms.asp?t=AANOT&m=153152&d=2017-07-19"},{"theatre":{"id":"8298","name":"Regal Westgate Stadium 11"},"dateTime":"2017-07-19T17:15","quals":"Descriptive Video Services|Closed Captioned","barg":true,"ticketURI":"http://www.fandango.com/tms.asp?t=AANOT&m=153152&d=2017-07-19"},{"theatre":{"id":"8298","name":"Regal Westgate Stadium 11"},"dateTime":"2017-07-19T18:00","quals":"Descriptive Video Services|Closed Captioned","barg":false,"ticketURI":"http://www.fandango.com/tms.asp?t=AANOT&m=153152&d=2017-07-19"},{"theatre":{"id":"8298","name":"Regal Westgate Stadium 11"},"dateTime":"2017-07-19T20:15","quals":"Descriptive Video Services|Closed Captioned","barg":false,"ticketURI":"http://www.fandango.com/tms.asp?t=AANOT&m=153152&d=2017-07-19"},{"theatre":{"id":"8498","name":"Regal Metropolitan Stadium 14"},"dateTime":"2017-07-19T12:15","quals":"Descriptive Video Services|Closed Captioned","barg":true,"ticketURI":"http://www.fandango.com/tms.asp?t=AALHE&m=153152&d=2017-07-19"},{"theatre":{"id":"8498","name":"Regal Metropolitan Stadium 14"},"dateTime":"2017-07-19T13:30","quals":"Descriptive Video Services|Closed Captioned","barg":true,"ticketURI":"http://www.fandango.com/tms.asp?t=AALHE&m=153152&d=2017-07-19"},{"theatre":{"id":"8498","name":"Regal Metropolitan Stadium 14"},"dateTime":"2017-07-19T14:45","quals":"Descriptive Video Services|Closed Captioned","barg":true,"ticketURI":"http://www.fandango.com/tms.asp?t=AALHE&m=153152&d=2017-07-19"},{"theatre":{"id":"8498","name":"Regal Metropolitan Stadium 14"},"dateTime":"2017-07-19T16:15","quals":"Descriptive Video Services|Closed Captioned","barg":true,"ticketURI":"http://www.fandango.com/tms.asp?t=AALHE&m=153152&d=2017-07-19"},{"theatre":{"id":"8498","name":"Regal Metropolitan Stadium 14"},"dateTime":"2017-07-19T17:20","quals":"Descriptive Video Services|Closed Captioned","barg":true,"ticketURI":"http://www.fandango.com/tms.asp?t=AALHE&m=153152&d=2017-07-19"},{"theatre":{"id":"8498","name":"Regal Metropolitan Stadium 14"},"dateTime":"2017-07-19T19:00","quals":"Descriptive Video Services|Closed Captioned","barg":false,"ticketURI":"http://www.fandango.com/tms.asp?t=AALHE&m=153152&d=2017-07-19"},{"theatre":{"id":"8498","name":"Regal Metropolitan Stadium 14"},"dateTime":"2017-07-19T21:40","quals":"Descriptive Video Services|Closed Captioned","barg":false,"ticketURI":"http://www.fandango.com/tms.asp?t=AALHE&m=153152&d=2017-07-19"},{"theatre":{"id":"9306","name":"Cinemark Southpark Meadows"},"dateTime":"2017-07-19T10:15","quals":"Reserved Seating|Closed Captioned|Lounger","barg":false,"ticketURI":"http://www.fandango.com/tms.asp?t=AAUIY&m=153152&d=2017-07-19"},{"theatre":{"id":"9306","name":"Cinemark Southpark Meadows"},"dateTime":"2017-07-19T12:40","quals":"Reserved Seating|Closed Captioned|Lounger","barg":false,"ticketURI":"http://www.fandango.com/tms.asp?t=AAUIY&m=153152&d=2017-07-19"},{"theatre":{"id":"9306","name":"Cinemark Southpark Meadows"},"dateTime":"2017-07-19T13:30","quals":"Reserved Seating|Closed Captioned|Lounger","barg":false,"ticketURI":"http://www.fandango.com/tms.asp?t=AAUIY&m=153152&d=2017-07-19"},{"theatre":{"id":"9306","name":"Cinemark Southpark Meadows"},"dateTime":"2017-07-19T15:10","quals":"Reserved Seating|Closed Captioned|Lounger","barg":false,"ticketURI":"http://www.fandango.com/tms.asp?t=AAUIY&m=153152&d=2017-07-19"},{"theatre":{"id":"9306","name":"Cinemark Southpark Meadows"},"dateTime":"2017-07-19T16:00","quals":"Reserved Seating|Closed Captioned|Lounger","barg":false,"ticketURI":"http://www.fandango.com/tms.asp?t=AAUIY&m=153152&d=2017-07-19"},{"theatre":{"id":"9306","name":"Cinemark Southpark Meadows"},"dateTime":"2017-07-19T17:40","quals":"Reserved Seating|Closed Captioned|Lounger","barg":false,"ticketURI":"http://www.fandango.com/tms.asp?t=AAUIY&m=153152&d=2017-07-19"},{"theatre":{"id":"9306","name":"Cinemark Southpark Meadows"},"dateTime":"2017-07-19T19:00","quals":"Reserved Seating|Closed Captioned|Lounger","barg":false,"ticketURI":"http://www.fandango.com/tms.asp?t=AAUIY&m=153152&d=2017-07-19"},{"theatre":{"id":"9306","name":"Cinemark Southpark Meadows"},"dateTime":"2017-07-19T20:00","quals":"Reserved Seating|Closed Captioned|Lounger","barg":false,"ticketURI":"http://www.fandango.com/tms.asp?t=AAUIY&m=153152&d=2017-07-19"},{"theatre":{"id":"9306","name":"Cinemark Southpark Meadows"},"dateTime":"2017-07-19T21:20","quals":"Reserved Seating|Closed Captioned|Lounger","barg":false,"ticketURI":"http://www.fandango.com/tms.asp?t=AAUIY&m=153152&d=2017-07-19"},{"theatre":{"id":"5084","name":"Alamo Drafthouse South Lamar"},"dateTime":"2017-07-19T10:45","barg":false,"ticketURI":"http://www.fandango.com/tms.asp?t=AATHS&m=153152&d=2017-07-19"},{"theatre":{"id":"5084","name":"Alamo Drafthouse South Lamar"},"dateTime":"2017-07-19T13:15","barg":false,"ticketURI":"http://www.fandango.com/tms.asp?t=AATHS&m=153152&d=2017-07-19"},{"theatre":{"id":"5084","name":"Alamo Drafthouse South Lamar"},"dateTime":"2017-07-19T15:45","barg":false,"ticketURI":"http://www.fandango.com/tms.asp?t=AATHS&m=153152&d=2017-07-19"},{"theatre":{"id":"5084","name":"Alamo Drafthouse South Lamar"},"dateTime":"2017-07-19T18:25","barg":false,"ticketURI":"http://www.fandango.com/tms.asp?t=AATHS&m=153152&d=2017-07-19"},{"theatre":{"id":"5084","name":"Alamo Drafthouse South Lamar"},"dateTime":"2017-07-19T21:00","barg":false,"ticketURI":"http://www.fandango.com/tms.asp?t=AATHS&m=153152&d=2017-07-19"},{"theatre":{"id":"10569","name":"Alamo Drafthouse Slaughter Lane"},"dateTime":"2017-07-19T12:05","barg":false,"ticketURI":"http://www.fandango.com/tms.asp?t=AAWQE&m=153152&d=2017-07-19"},{"theatre":{"id":"10569","name":"Alamo Drafthouse Slaughter Lane"},"dateTime":"2017-07-19T14:25","barg":false,"ticketURI":"http://www.fandango.com/tms.asp?t=AAWQE&m=153152&d=2017-07-19"},{"theatre":{"id":"10569","name":"Alamo Drafthouse Slaughter Lane"},"dateTime":"2017-07-19T18:00","barg":false,"ticketURI":"http://www.fandango.com/tms.asp?t=AAWQE&m=153152&d=2017-07-19"},{"theatre":{"id":"10569","name":"Alamo Drafthouse Slaughter Lane"},"dateTime":"2017-07-19T21:10","barg":false,"ticketURI":"http://www.fandango.com/tms.asp?t=AAWQE&m=153152&d=2017-07-19"}]},{"tmsId":"MV003471310000","rootId":"8493682","subType":"Feature Film","title":"The Adventures of Tintin","releaseYear":2011,"releaseDate":"2011-12-21","titleLang":"en","descriptionLang":"en","entityType":"Movie","genres":["Adventure","Animated","Children"],"audience":"Children","longDescription":"While shopping at an outdoor market, young reporter Tintin (Jamie Bell), accompanied by his faithful dog, Snowy, buys a model of an old ship called the Unicorn. A shady character named Sakharine (Daniel Craig) and later an American named Barnaby (Joe Starr) try to buy the model from him, but Tintin refuses. The lad discovers that the ship contains a clue about a hidden treasure, but before he can locate it, Tintin is kidnapped and given over to the custody of drunken Capt. Haddock (Andy Serkis).","shortDescription":"Young reporter Tintin acquires a model ship that contains a clue about a hidden treasure.","topCast":["Jamie Bell","Andy Serkis","Daniel Craig"],"directors":["Steven Spielberg"],"officialUrl":"http://www.us.movie.tintin.com/","qualityRating":{"ratingsBody":"TMS","value":"3"},"ratings":[{"body":"Motion Picture Association of America","code":"PG"}],"advisories":["Adult Situations","Violence"],"runTime":"PT01H47M","animation":"Animated","preferredImage":{"width":"240","height":"360","uri":"assets/p8493682_v_v5_ac.jpg","category":"VOD Art","text":"yes","primary":"true"},"showtimes":[{"theatre":{"id":"8298","name":"Regal Westgate Stadium 11"},"dateTime":"2017-07-19T10:00","quals":"Descriptive Video Services|Closed Captioned","barg":false,"ticketURI":"http://www.fandango.com/tms.asp?t=AANOT&m=102592&d=2017-07-19"}]},{"tmsId":"MV005911800000","rootId":"10849021","subType":"Feature Film","title":"The SpongeBob Movie: Sponge Out of Water","releaseYear":2015,"releaseDate":"2015-02-06","titleLang":"en","descriptionLang":"en","entityType":"Movie","genres":["Comedy","Adventure","Animated","Children"],"audience":"Children","longDescription":"Life is dandy in Bikini Bottom for SpongeBob Squarepants (Tom Kenny) and his friends Patrick (Bill Fagerbakke), Squidward (Rodger Bumpass), Mr. Krabs (Clancy Brown) and Sandy (Carolyn Lawrence). However, when the top-secret recipe for Krabby Patties is stolen, SpongeBob finds that he must join forces with perpetual adversary Plankton (Mr. Lawrence) and come ashore to battle a fiendish pirate named Burger Beard (Antonio Banderas), who has his own plans for the delicious delicacies.","shortDescription":"SpongeBob and Plankton join forces against a pirate after the recipe for Krabby Patties is stolen.","topCast":["Tom Kenny","Bill Fagerbakke","Rodger Bumpass"],"directors":["Paul Tibbitt","Mike Mitchell"],"officialUrl":"http://www.spongebobmovie.com/","qualityRating":{"ratingsBody":"TMS","value":"3"},"ratings":[{"body":"Motion Picture Association of America","code":"PG"}],"advisories":["Adult Situations"],"runTime":"PT01H32M","animation":"Live action/animated","preferredImage":{"width":"240","height":"360","uri":"assets/p10849021_v_v5_aa.jpg","category":"VOD Art","text":"yes","primary":"true"},"showtimes":[{"theatre":{"id":"8298","name":"Regal Westgate Stadium 11"},"dateTime":"2017-07-19T10:00","barg":false,"ticketURI":"http://www.fandango.com/tms.asp?t=AANOT&m=140297&d=2017-07-19"}]},{"tmsId":"MV009807850000","rootId":"13816071","subType":"Feature Film","title":"The Beguiled","releaseYear":2017,"releaseDate":"2017-05-24","titleLang":"en","descriptionLang":"en","entityType":"Movie","genres":["Thriller","Historical drama"],"longDescription":"Cpl. John McBurney is an injured Union soldier who finds himself on the run as a deserter during the Civil War. He seeks refuge at an all-female Southern boarding school where the teachers and students seem more than willing to help. Soon, sexual tensions lead to dangerous rivalries as the women tend to his wounded leg while offering him comfort and companionship.","shortDescription":"Tensions and rivalries rise when an injured Union deserter arrives at an all-female Southern school.","topCast":["Colin Farrell","Nicole Kidman","Kirsten Dunst"],"directors":["Sofia Coppola"],"officialUrl":"http://www.focusfeatures.com/thebeguiled","qualityRating":{"ratingsBody":"TMS","value":"3"},"ratings":[{"body":"Motion Picture Association of America","code":"R"}],"advisories":["Adult Language","Adult Situations","Violence"],"runTime":"PT01H34M","preferredImage":{"width":"240","height":"360","caption":{"content":"The Beguiled (2017)","lang":"en"},"uri":"assets/p13816071_p_v5_ab.jpg","category":"Poster Art","text":"yes","primary":"true"},"showtimes":[{"theatre":{"id":"8298","name":"Regal Westgate Stadium 11"},"dateTime":"2017-07-19T10:10","quals":"Descriptive Video Services|Closed Captioned","barg":true,"ticketURI":"http://www.fandango.com/tms.asp?t=AANOT&m=171076&d=2017-07-19"},{"theatre":{"id":"8298","name":"Regal Westgate Stadium 11"},"dateTime":"2017-07-19T14:45","quals":"Descriptive Video Services|Closed Captioned","barg":true,"ticketURI":"http://www.fandango.com/tms.asp?t=AANOT&m=171076&d=2017-07-19"},{"theatre":{"id":"8298","name":"Regal Westgate Stadium 11"},"dateTime":"2017-07-19T19:35","quals":"Descriptive Video Services|Closed Captioned","barg":false,"ticketURI":"http://www.fandango.com/tms.asp?t=AANOT&m=171076&d=2017-07-19"},{"theatre":{"id":"8298","name":"Regal Westgate Stadium 11"},"dateTime":"2017-07-19T21:50","quals":"Descriptive Video Services|Closed Captioned","barg":false,"ticketURI":"http://www.fandango.com/tms.asp?t=AANOT&m=171076&d=2017-07-19"},{"theatre":{"id":"5084","name":"Alamo Drafthouse South Lamar"},"dateTime":"2017-07-19T10:50","barg":false,"ticketURI":"http://www.fandango.com/tms.asp?t=AATHS&m=171076&d=2017-07-19"},{"theatre":{"id":"5084","name":"Alamo Drafthouse South Lamar"},"dateTime":"2017-07-19T13:25","barg":false,"ticketURI":"http://www.fandango.com/tms.asp?t=AATHS&m=171076&d=2017-07-19"},{"theatre":{"id":"5084","name":"Alamo Drafthouse South Lamar"},"dateTime":"2017-07-19T16:00","barg":false,"ticketURI":"http://www.fandango.com/tms.asp?t=AATHS&m=171076&d=2017-07-19"},{"theatre":{"id":"5084","name":"Alamo Drafthouse South Lamar"},"dateTime":"2017-07-19T18:55","barg":false,"ticketURI":"http://www.fandango.com/tms.asp?t=AATHS&m=171076&d=2017-07-19"},{"theatre":{"id":"5084","name":"Alamo Drafthouse South Lamar"},"dateTime":"2017-07-19T21:30","barg":false,"ticketURI":"http://www.fandango.com/tms.asp?t=AATHS&m=171076&d=2017-07-19"}]},{"tmsId":"MV009294790000","rootId":"13259415","subType":"Feature Film","title":"Baby Driver","releaseYear":2017,"releaseDate":"2017-03-11","titleLang":"en","descriptionLang":"en","entityType":"Movie","genres":["Action","Thriller","Comedy"],"longDescription":"Talented getaway driver Baby (Ansel Elgort) relies on the beat of his personal soundtrack to be the best in the game. After meeting the woman (Lily James) of his dreams, he sees a chance to ditch his shady lifestyle and make a clean break. Coerced into working for a crime boss (Kevin Spacey), Baby must face the music as a doomed heist threatens his life, love and freedom.","shortDescription":"A young getaway driver must face the music when a doomed heist threatens his life, love and freedom.","topCast":["Ansel Elgort","Kevin Spacey","Lily James"],"directors":["Edgar Wright"],"officialUrl":"http://www.babydriver-movie.com/","qualityRating":{"ratingsBody":"TMS","value":"3.5"},"ratings":[{"body":"Motion Picture Association of America","code":"R"}],"advisories":["Adult Language","Adult Situations","Graphic Violence"],"runTime":"PT01H53M","preferredImage":{"width":"240","height":"360","uri":"assets/p13259415_v_v5_ab.jpg","category":"VOD Art","text":"yes","primary":"true"},"showtimes":[{"theatre":{"id":"8298","name":"Regal Westgate Stadium 11"},"dateTime":"2017-07-19T10:15","quals":"Descriptive Video Services|Closed Captioned","barg":true,"ticketURI":"http://www.fandango.com/tms.asp?t=AANOT&m=166105&d=2017-07-19"},{"theatre":{"id":"8298","name":"Regal Westgate Stadium 11"},"dateTime":"2017-07-19T12:50","quals":"Descriptive Video Services|Closed Captioned","barg":true,"ticketURI":"http://www.fandango.com/tms.asp?t=AANOT&m=166105&d=2017-07-19"},{"theatre":{"id":"8298","name":"Regal Westgate Stadium 11"},"dateTime":"2017-07-19T15:30","quals":"Descriptive Video Services|Closed Captioned","barg":true,"ticketURI":"http://www.fandango.com/tms.asp?t=AANOT&m=166105&d=2017-07-19"},{"theatre":{"id":"8298","name":"Regal Westgate Stadium 11"},"dateTime":"2017-07-19T17:00","quals":"Descriptive Video Services|Closed Captioned","barg":true,"ticketURI":"http://www.fandango.com/tms.asp?t=AANOT&m=166105&d=2017-07-19"},{"theatre":{"id":"8298","name":"Regal Westgate Stadium 11"},"dateTime":"2017-07-19T19:30","quals":"Descriptive Video Services|Closed Captioned","barg":false,"ticketURI":"http://www.fandango.com/tms.asp?t=AANOT&m=166105&d=2017-07-19"},{"theatre":{"id":"8298","name":"Regal Westgate Stadium 11"},"dateTime":"2017-07-19T22:25","quals":"Descriptive Video Services|Closed Captioned","barg":false,"ticketURI":"http://www.fandango.com/tms.asp?t=AANOT&m=166105&d=2017-07-19"},{"theatre":{"id":"8498","name":"Regal Metropolitan Stadium 14"},"dateTime":"2017-07-19T13:10","quals":"Descriptive Video Services|Closed Captioned","barg":true,"ticketURI":"http://www.fandango.com/tms.asp?t=AALHE&m=166105&d=2017-07-19"},{"theatre":{"id":"8498","name":"Regal Metropolitan Stadium 14"},"dateTime":"2017-07-19T16:30","quals":"Descriptive Video Services|Closed Captioned","barg":true,"ticketURI":"http://www.fandango.com/tms.asp?t=AALHE&m=166105&d=2017-07-19"},{"theatre":{"id":"8498","name":"Regal Metropolitan Stadium 14"},"dateTime":"2017-07-19T19:40","quals":"Descriptive Video Services|Closed Captioned","barg":false,"ticketURI":"http://www.fandango.com/tms.asp?t=AALHE&m=166105&d=2017-07-19"},{"theatre":{"id":"8498","name":"Regal Metropolitan Stadium 14"},"dateTime":"2017-07-19T22:45","quals":"Descriptive Video Services|Closed Captioned","barg":false,"ticketURI":"http://www.fandango.com/tms.asp?t=AALHE&m=166105&d=2017-07-19"},{"theatre":{"id":"9306","name":"Cinemark Southpark Meadows"},"dateTime":"2017-07-19T10:30","quals":"Reserved Seating|Closed Captioned|Lounger","barg":false,"ticketURI":"http://www.fandango.com/tms.asp?t=AAUIY&m=166105&d=2017-07-19"},{"theatre":{"id":"9306","name":"Cinemark Southpark Meadows"},"dateTime":"2017-07-19T13:15","quals":"Reserved Seating|Closed Captioned|Lounger","barg":false,"ticketURI":"http://www.fandango.com/tms.asp?t=AAUIY&m=166105&d=2017-07-19"},{"theatre":{"id":"9306","name":"Cinemark Southpark Meadows"},"dateTime":"2017-07-19T16:25","quals":"Reserved Seating|Closed Captioned|Lounger","barg":false,"ticketURI":"http://www.fandango.com/tms.asp?t=AAUIY&m=166105&d=2017-07-19"},{"theatre":{"id":"9306","name":"Cinemark Southpark Meadows"},"dateTime":"2017-07-19T19:10","quals":"Reserved Seating|Closed Captioned|Lounger","barg":false,"ticketURI":"http://www.fandango.com/tms.asp?t=AAUIY&m=166105&d=2017-07-19"},{"theatre":{"id":"9306","name":"Cinemark Southpark Meadows"},"dateTime":"2017-07-19T22:05","quals":"Reserved Seating|Closed Captioned|Lounger","barg":false,"ticketURI":"http://www.fandango.com/tms.asp?t=AAUIY&m=166105&d=2017-07-19"},{"theatre":{"id":"10569","name":"Alamo Drafthouse Slaughter Lane"},"dateTime":"2017-07-19T11:10","barg":false,"ticketURI":"http://www.fandango.com/tms.asp?t=AAWQE&m=166105&d=2017-07-19"},{"theatre":{"id":"10569","name":"Alamo Drafthouse Slaughter Lane"},"dateTime":"2017-07-19T14:40","barg":false,"ticketURI":"http://www.fandango.com/tms.asp?t=AAWQE&m=166105&d=2017-07-19"},{"theatre":{"id":"10569","name":"Alamo Drafthouse Slaughter Lane"},"dateTime":"2017-07-19T17:10","barg":false,"ticketURI":"http://www.fandango.com/tms.asp?t=AAWQE&m=166105&d=2017-07-19"},{"theatre":{"id":"10569","name":"Alamo Drafthouse Slaughter Lane"},"dateTime":"2017-07-19T20:15","barg":false,"ticketURI":"http://www.fandango.com/tms.asp?t=AAWQE&m=166105&d=2017-07-19"},{"theatre":{"id":"10569","name":"Alamo Drafthouse Slaughter Lane"},"dateTime":"2017-07-19T23:15","barg":false,"ticketURI":"http://www.fandango.com/tms.asp?t=AAWQE&m=166105&d=2017-07-19"}]},{"tmsId":"MV008806610000","rootId":"12798844","subType":"Feature Film","title":"Spider-Man: Homecoming","releaseYear":2017,"releaseDate":"2017-07-07","titleLang":"en","descriptionLang":"en","entityType":"Movie","genres":["Action","Adventure","Fantasy","Comedy"],"longDescription":"Thrilled by his experience with the Avengers, young Peter Parker returns home to live with his Aunt May. Under the watchful eye of mentor Tony Stark, Parker starts to embrace his newfound identity as Spider-Man. He also tries to return to his normal daily routine -- distracted by thoughts of proving himself to be more than just a friendly neighborhood superhero. Peter must soon put his powers to the test when the evil Vulture emerges to threaten everything that he holds dear.","shortDescription":"High school student Peter Parker embraces his new identity as Spider-Man to battle the evil Vulture.","topCast":["Tom Holland","Michael Keaton","Robert Downey Jr."],"directors":["Jon Watts"],"officialUrl":"http://www.spidermanhomecoming.com/","qualityRating":{"ratingsBody":"TMS","value":"3"},"ratings":[{"body":"Motion Picture Association of America","code":"PG-13"}],"advisories":["Adult Language","Adult Situations","Violence"],"runTime":"PT02H13M","preferredImage":{"width":"240","height":"360","caption":{"content":"Spider-Man: Homecoming -- The IMAX 2D Experience (2017)","lang":"en"},"uri":"assets/p12798844_p_v5_ab.jpg","category":"Poster Art","text":"yes","primary":"true"},"showtimes":[{"theatre":{"id":"8298","name":"Regal Westgate Stadium 11"},"dateTime":"2017-07-19T10:35","quals":"Descriptive Video Services|No Passes|Closed Captioned","barg":true,"ticketURI":"http://www.fandango.com/tms.asp?t=AANOT&m=161696&d=2017-07-19"},{"theatre":{"id":"8298","name":"Regal Westgate Stadium 11"},"dateTime":"2017-07-19T11:25","quals":"Descriptive Video Services|No Passes|Closed Captioned","barg":true,"ticketURI":"http://www.fandango.com/tms.asp?t=AANOT&m=161696&d=2017-07-19"},{"theatre":{"id":"8298","name":"Regal Westgate Stadium 11"},"dateTime":"2017-07-19T12:30","quals":"Descriptive Video Services|No Passes|Closed Captioned","barg":true,"ticketURI":"http://www.fandango.com/tms.asp?t=AANOT&m=161696&d=2017-07-19"},{"theatre":{"id":"8298","name":"Regal Westgate Stadium 11"},"dateTime":"2017-07-19T13:30","quals":"Descriptive Video Services|No Passes|Closed Captioned","barg":true,"ticketURI":"http://www.fandango.com/tms.asp?t=AANOT&m=161696&d=2017-07-19"},{"theatre":{"id":"8298","name":"Regal Westgate Stadium 11"},"dateTime":"2017-07-19T15:30","quals":"Descriptive Video Services|No Passes|Closed Captioned","barg":true,"ticketURI":"http://www.fandango.com/tms.asp?t=AANOT&m=161696&d=2017-07-19"},{"theatre":{"id":"8298","name":"Regal Westgate Stadium 11"},"dateTime":"2017-07-19T16:45","quals":"Descriptive Video Services|No Passes|Closed Captioned","barg":true,"ticketURI":"http://www.fandango.com/tms.asp?t=AANOT&m=161696&d=2017-07-19"},{"theatre":{"id":"8298","name":"Regal Westgate Stadium 11"},"dateTime":"2017-07-19T18:45","quals":"Descriptive Video Services|No Passes|Closed Captioned","barg":false,"ticketURI":"http://www.fandango.com/tms.asp?t=AANOT&m=161696&d=2017-07-19"},{"theatre":{"id":"8298","name":"Regal Westgate Stadium 11"},"dateTime":"2017-07-19T19:40","quals":"Descriptive Video Services|No Passes|Closed Captioned","barg":false,"ticketURI":"http://www.fandango.com/tms.asp?t=AANOT&m=161696&d=2017-07-19"},{"theatre":{"id":"8298","name":"Regal Westgate Stadium 11"},"dateTime":"2017-07-19T20:50","quals":"Descriptive Video Services|No Passes|Closed Captioned","barg":false,"ticketURI":"http://www.fandango.com/tms.asp?t=AANOT&m=161696&d=2017-07-19"},{"theatre":{"id":"8298","name":"Regal Westgate Stadium 11"},"dateTime":"2017-07-19T21:45","quals":"Descriptive Video Services|No Passes|Closed Captioned","barg":false,"ticketURI":"http://www.fandango.com/tms.asp?t=AANOT&m=161696&d=2017-07-19"},{"theatre":{"id":"8298","name":"Regal Westgate Stadium 11"},"dateTime":"2017-07-19T22:30","quals":"Descriptive Video Services|No Passes|Closed Captioned","barg":false,"ticketURI":"http://www.fandango.com/tms.asp?t=AANOT&m=161696&d=2017-07-19"},{"theatre":{"id":"8498","name":"Regal Metropolitan Stadium 14"},"dateTime":"2017-07-19T12:50","quals":"Descriptive Video Services|No Passes|Closed Captioned","barg":true,"ticketURI":"http://www.fandango.com/tms.asp?t=AALHE&m=161696&d=2017-07-19"},{"theatre":{"id":"8498","name":"Regal Metropolitan Stadium 14"},"dateTime":"2017-07-19T13:50","quals":"Descriptive Video Services|No Passes|Closed Captioned","barg":true,"ticketURI":"http://www.fandango.com/tms.asp?t=AALHE&m=161696&d=2017-07-19"},{"theatre":{"id":"8498","name":"Regal Metropolitan Stadium 14"},"dateTime":"2017-07-19T17:00","quals":"Descriptive Video Services|No Passes|Closed Captioned","barg":true,"ticketURI":"http://www.fandango.com/tms.asp?t=AALHE&m=161696&d=2017-07-19"},{"theatre":{"id":"8498","name":"Regal Metropolitan Stadium 14"},"dateTime":"2017-07-19T19:15","quals":"Descriptive Video Services|No Passes|Closed Captioned","barg":false,"ticketURI":"http://www.fandango.com/tms.asp?t=AALHE&m=161696&d=2017-07-19"},{"theatre":{"id":"8498","name":"Regal Metropolitan Stadium 14"},"dateTime":"2017-07-19T20:10","quals":"Closed Captioned|No Passes|Descriptive Video Services","barg":false,"ticketURI":"http://www.fandango.com/tms.asp?t=AALHE&m=161696&d=2017-07-19"},{"theatre":{"id":"9306","name":"Cinemark Southpark Meadows"},"dateTime":"2017-07-19T10:10","quals":"Reserved Seating|Closed Captioned|Lounger","barg":false,"ticketURI":"http://www.fandango.com/tms.asp?t=AAUIY&m=161696&d=2017-07-19"},{"theatre":{"id":"9306","name":"Cinemark Southpark Meadows"},"dateTime":"2017-07-19T11:10","quals":"Reserved Seating|Closed Captioned|Lounger","barg":false,"ticketURI":"http://www.fandango.com/tms.asp?t=AAUIY&m=161696&d=2017-07-19"},{"theatre":{"id":"9306","name":"Cinemark Southpark Meadows"},"dateTime":"2017-07-19T14:30","quals":"Reserved Seating|Closed Captioned|Lounger","barg":false,"ticketURI":"http://www.fandango.com/tms.asp?t=AAUIY&m=161696&d=2017-07-19"},{"theatre":{"id":"9306","name":"Cinemark Southpark Meadows"},"dateTime":"2017-07-19T15:40","quals":"Reserved Seating|Closed Captioned|Lounger","barg":false,"ticketURI":"http://www.fandango.com/tms.asp?t=AAUIY&m=161696&d=2017-07-19"},{"theatre":{"id":"9306","name":"Cinemark Southpark Meadows"},"dateTime":"2017-07-19T16:45","quals":"Reserved Seating|Closed Captioned|Lounger","barg":false,"ticketURI":"http://www.fandango.com/tms.asp?t=AAUIY&m=161696&d=2017-07-19"},{"theatre":{"id":"9306","name":"Cinemark Southpark Meadows"},"dateTime":"2017-07-19T17:45","quals":"Reserved Seating|Closed Captioned|Lounger","barg":false,"ticketURI":"http://www.fandango.com/tms.asp?t=AAUIY&m=161696&d=2017-07-19"},{"theatre":{"id":"9306","name":"Cinemark Southpark Meadows"},"dateTime":"2017-07-19T20:10","quals":"Reserved Seating|Closed Captioned|Lounger","barg":false,"ticketURI":"http://www.fandango.com/tms.asp?t=AAUIY&m=161696&d=2017-07-19"},{"theatre":{"id":"9306","name":"Cinemark Southpark Meadows"},"dateTime":"2017-07-19T21:00","quals":"Reserved Seating|Closed Captioned|Lounger","barg":false,"ticketURI":"http://www.fandango.com/tms.asp?t=AAUIY&m=161696&d=2017-07-19"},{"theatre":{"id":"5084","name":"Alamo Drafthouse South Lamar"},"dateTime":"2017-07-19T10:15","barg":false,"ticketURI":"http://www.fandango.com/tms.asp?t=AATHS&m=161696&d=2017-07-19"},{"theatre":{"id":"5084","name":"Alamo Drafthouse South Lamar"},"dateTime":"2017-07-19T12:15","barg":false,"ticketURI":"http://www.fandango.com/tms.asp?t=AATHS&m=161696&d=2017-07-19"},{"theatre":{"id":"5084","name":"Alamo Drafthouse South Lamar"},"dateTime":"2017-07-19T13:35","barg":false,"ticketURI":"http://www.fandango.com/tms.asp?t=AATHS&m=161696&d=2017-07-19"},{"theatre":{"id":"5084","name":"Alamo Drafthouse South Lamar"},"dateTime":"2017-07-19T15:30","barg":false,"ticketURI":"http://www.fandango.com/tms.asp?t=AATHS&m=161696&d=2017-07-19"},{"theatre":{"id":"5084","name":"Alamo Drafthouse South Lamar"},"dateTime":"2017-07-19T18:00","barg":false,"ticketURI":"http://www.fandango.com/tms.asp?t=AATHS&m=161696&d=2017-07-19"},{"theatre":{"id":"5084","name":"Alamo Drafthouse South Lamar"},"dateTime":"2017-07-19T21:00","barg":false,"ticketURI":"http://www.fandango.com/tms.asp?t=AATHS&m=161696&d=2017-07-19"},{"theatre":{"id":"5084","name":"Alamo Drafthouse South Lamar"},"dateTime":"2017-07-19T22:35","barg":false,"ticketURI":"http://www.fandango.com/tms.asp?t=AATHS&m=161696&d=2017-07-19"},{"theatre":{"id":"10569","name":"Alamo Drafthouse Slaughter Lane"},"dateTime":"2017-07-19T10:00","barg":false,"ticketURI":"http://www.fandango.com/tms.asp?t=AAWQE&m=161696&d=2017-07-19"},{"theatre":{"id":"10569","name":"Alamo Drafthouse Slaughter Lane"},"dateTime":"2017-07-19T12:50","barg":false,"ticketURI":"http://www.fandango.com/tms.asp?t=AAWQE&m=161696&d=2017-07-19"},{"theatre":{"id":"10569","name":"Alamo Drafthouse Slaughter Lane"},"dateTime":"2017-07-19T13:25","barg":false,"ticketURI":"http://www.fandango.com/tms.asp?t=AAWQE&m=161696&d=2017-07-19"},{"theatre":{"id":"10569","name":"Alamo Drafthouse Slaughter Lane"},"dateTime":"2017-07-19T15:25","barg":false,"ticketURI":"http://www.fandango.com/tms.asp?t=AAWQE&m=161696&d=2017-07-19"},{"theatre":{"id":"10569","name":"Alamo Drafthouse Slaughter Lane"},"dateTime":"2017-07-19T16:40","barg":false,"ticketURI":"http://www.fandango.com/tms.asp?t=AAWQE&m=161696&d=2017-07-19"},{"theatre":{"id":"10569","name":"Alamo Drafthouse Slaughter Lane"},"dateTime":"2017-07-19T18:50","barg":false,"ticketURI":"http://www.fandango.com/tms.asp?t=AAWQE&m=161696&d=2017-07-19"},{"theatre":{"id":"10569","name":"Alamo Drafthouse Slaughter Lane"},"dateTime":"2017-07-19T20:00","barg":false,"ticketURI":"http://www.fandango.com/tms.asp?t=AAWQE&m=161696&d=2017-07-19"},{"theatre":{"id":"10569","name":"Alamo Drafthouse Slaughter Lane"},"dateTime":"2017-07-19T22:05","barg":false,"ticketURI":"http://www.fandango.com/tms.asp?t=AAWQE&m=161696&d=2017-07-19"},{"theatre":{"id":"10569","name":"Alamo Drafthouse Slaughter Lane"},"dateTime":"2017-07-19T23:15","barg":false,"ticketURI":"http://www.fandango.com/tms.asp?t=AAWQE&m=161696&d=2017-07-19"}]},{"tmsId":"MV008489260000","rootId":"12543972","subType":"Feature Film","title":"Wonder Woman","releaseYear":2017,"releaseDate":"2017-06-02","titleLang":"en","descriptionLang":"en","entityType":"Movie","genres":["Action","Adventure","Fantasy"],"longDescription":"Before she was Wonder Woman (Gal Gadot), she was Diana, princess of the Amazons, trained to be an unconquerable warrior. Raised on a sheltered island paradise, Diana meets an American pilot (Chris Pine) who tells her about the massive conflict that\'s raging in the outside world. Convinced that she can stop the threat, Diana leaves her home for the first time. Fighting alongside men in a war to end all wars, she finally discovers her full powers and true destiny.","shortDescription":"Wonder Woman (Gal Gadot) discovers her full powers and true destiny while fighting alongside men.","topCast":["Gal Gadot","Chris Pine","Connie Nielsen"],"directors":["Patty Jenkins"],"officialUrl":"http://wonderwomanfilm.com/","qualityRating":{"ratingsBody":"TMS","value":"3"},"ratings":[{"body":"Motion Picture Association of America","code":"PG-13"}],"advisories":["Adult Situations","Violence"],"runTime":"PT02H21M","preferredImage":{"width":"240","height":"360","caption":{"content":"Wonder Woman (2017)","lang":"en"},"uri":"assets/p12543972_p_v5_ai.jpg","category":"Poster Art","text":"yes","primary":"true"},"showtimes":[{"theatre":{"id":"8298","name":"Regal Westgate Stadium 11"},"dateTime":"2017-07-19T11:50","quals":"Descriptive Video Services|Closed Captioned","barg":true,"ticketURI":"http://www.fandango.com/tms.asp?t=AANOT&m=158785&d=2017-07-19"},{"theatre":{"id":"8298","name":"Regal Westgate Stadium 11"},"dateTime":"2017-07-19T14:55","quals":"Descriptive Video Services|Closed Captioned","barg":true,"ticketURI":"http://www.fandango.com/tms.asp?t=AANOT&m=158785&d=2017-07-19"},{"theatre":{"id":"8298","name":"Regal Westgate Stadium 11"},"dateTime":"2017-07-19T18:00","quals":"Descriptive Video Services|Closed Captioned","barg":false,"ticketURI":"http://www.fandango.com/tms.asp?t=AANOT&m=158785&d=2017-07-19"},{"theatre":{"id":"8298","name":"Regal Westgate Stadium 11"},"dateTime":"2017-07-19T21:05","quals":"Descriptive Video Services|Closed Captioned","barg":false,"ticketURI":"http://www.fandango.com/tms.asp?t=AANOT&m=158785&d=2017-07-19"},{"theatre":{"id":"8498","name":"Regal Metropolitan Stadium 14"},"dateTime":"2017-07-19T12:40","quals":"Descriptive Video Services|Closed Captioned","barg":true,"ticketURI":"http://www.fandango.com/tms.asp?t=AALHE&m=158785&d=2017-07-19"},{"theatre":{"id":"8498","name":"Regal Metropolitan Stadium 14"},"dateTime":"2017-07-19T16:40","quals":"Descriptive Video Services|Closed Captioned","barg":true,"ticketURI":"http://www.fandango.com/tms.asp?t=AALHE&m=158785&d=2017-07-19"},{"theatre":{"id":"8498","name":"Regal Metropolitan Stadium 14"},"dateTime":"2017-07-19T20:00","quals":"Descriptive Video Services|Closed Captioned","barg":false,"ticketURI":"http://www.fandango.com/tms.asp?t=AALHE&m=158785&d=2017-07-19"},{"theatre":{"id":"9306","name":"Cinemark Southpark Meadows"},"dateTime":"2017-07-19T09:50","quals":"Reserved Seating|Closed Captioned|Lounger","barg":false,"ticketURI":"http://www.fandango.com/tms.asp?t=AAUIY&m=158785&d=2017-07-19"},{"theatre":{"id":"9306","name":"Cinemark Southpark Meadows"},"dateTime":"2017-07-19T13:00","quals":"Reserved Seating|Closed Captioned|Lounger","barg":false,"ticketURI":"http://www.fandango.com/tms.asp?t=AAUIY&m=158785&d=2017-07-19"},{"theatre":{"id":"9306","name":"Cinemark Southpark Meadows"},"dateTime":"2017-07-19T16:10","quals":"Reserved Seating|Closed Captioned|Lounger","barg":false,"ticketURI":"http://www.fandango.com/tms.asp?t=AAUIY&m=158785&d=2017-07-19"},{"theatre":{"id":"9306","name":"Cinemark Southpark Meadows"},"dateTime":"2017-07-19T19:20","quals":"Reserved Seating|Closed Captioned|Lounger","barg":false,"ticketURI":"http://www.fandango.com/tms.asp?t=AAUIY&m=158785&d=2017-07-19"},{"theatre":{"id":"9306","name":"Cinemark Southpark Meadows"},"dateTime":"2017-07-19T22:30","quals":"Reserved Seating|Closed Captioned|Lounger","barg":false,"ticketURI":"http://www.fandango.com/tms.asp?t=AAUIY&m=158785&d=2017-07-19"},{"theatre":{"id":"5084","name":"Alamo Drafthouse South Lamar"},"dateTime":"2017-07-19T11:10","barg":false,"ticketURI":"http://www.fandango.com/tms.asp?t=AATHS&m=158785&d=2017-07-19"},{"theatre":{"id":"5084","name":"Alamo Drafthouse South Lamar"},"dateTime":"2017-07-19T14:35","barg":false,"ticketURI":"http://www.fandango.com/tms.asp?t=AATHS&m=158785&d=2017-07-19"},{"theatre":{"id":"5084","name":"Alamo Drafthouse South Lamar"},"dateTime":"2017-07-19T18:10","barg":false,"ticketURI":"http://www.fandango.com/tms.asp?t=AATHS&m=158785&d=2017-07-19"},{"theatre":{"id":"5084","name":"Alamo Drafthouse South Lamar"},"dateTime":"2017-07-19T21:35","barg":false,"ticketURI":"http://www.fandango.com/tms.asp?t=AATHS&m=158785&d=2017-07-19"},{"theatre":{"id":"10569","name":"Alamo Drafthouse Slaughter Lane"},"dateTime":"2017-07-19T11:00","barg":false,"ticketURI":"http://www.fandango.com/tms.asp?t=AAWQE&m=158785&d=2017-07-19"},{"theatre":{"id":"10569","name":"Alamo Drafthouse Slaughter Lane"},"dateTime":"2017-07-19T14:40","barg":false,"ticketURI":"http://www.fandango.com/tms.asp?t=AAWQE&m=158785&d=2017-07-19"},{"theatre":{"id":"10569","name":"Alamo Drafthouse Slaughter Lane"},"dateTime":"2017-07-19T18:15","barg":false,"ticketURI":"http://www.fandango.com/tms.asp?t=AAWQE&m=158785&d=2017-07-19"},{"theatre":{"id":"10569","name":"Alamo Drafthouse Slaughter Lane"},"dateTime":"2017-07-19T21:50","barg":false,"ticketURI":"http://www.fandango.com/tms.asp?t=AAWQE&m=158785&d=2017-07-19"}]},{"tmsId":"MV009818230000","rootId":"13831327","subType":"Feature Film","title":"The Big Sick","releaseYear":2017,"releaseDate":"2017-01-20","titleLang":"en","descriptionLang":"en","entityType":"Movie","genres":["Romantic comedy"],"longDescription":"Kumail is a Pakistani comic who meets an American graduate student named Emily at one of his stand-up shows. As their relationship blossoms, he soon becomes worried about what his traditional Muslim parents will think of her. When Emily suddenly comes down with an illness that leaves her in a coma, Kumail finds himself developing a bond with her deeply concerned mother and father.","shortDescription":"A Pakistani stand-up comic develops a bond with the parents of his comatose American girlfriend.","topCast":["Kumail Nanjiani","Zoe Kazan","Holly Hunter"],"directors":["Michael Showalter"],"officialUrl":"https://www.thebigsickmovie.com/","qualityRating":{"ratingsBody":"TMS","value":"3.5"},"ratings":[{"body":"Motion Picture Association of America","code":"R"}],"advisories":["Adult Language","Adult Situations"],"runTime":"PT02H00M","preferredImage":{"width":"240","height":"360","uri":"assets/p13831327_v_v5_aa.jpg","category":"VOD Art","text":"yes","primary":"true"},"showtimes":[{"theatre":{"id":"8298","name":"Regal Westgate Stadium 11"},"dateTime":"2017-07-19T12:10","quals":"Descriptive Video Services|Closed Captioned","barg":true,"ticketURI":"http://www.fandango.com/tms.asp?t=AANOT&m=171221&d=2017-07-19"},{"theatre":{"id":"8298","name":"Regal Westgate Stadium 11"},"dateTime":"2017-07-19T14:05","quals":"Descriptive Video Services|Closed Captioned","barg":true,"ticketURI":"http://www.fandango.com/tms.asp?t=AANOT&m=171221&d=2017-07-19"},{"theatre":{"id":"8298","name":"Regal Westgate Stadium 11"},"dateTime":"2017-07-19T16:50","quals":"Descriptive Video Services|Closed Captioned","barg":true,"ticketURI":"http://www.fandango.com/tms.asp?t=AANOT&m=171221&d=2017-07-19"},{"theatre":{"id":"8298","name":"Regal Westgate Stadium 11"},"dateTime":"2017-07-19T19:35","quals":"Descriptive Video Services|Closed Captioned","barg":false,"ticketURI":"http://www.fandango.com/tms.asp?t=AANOT&m=171221&d=2017-07-19"},{"theatre":{"id":"8298","name":"Regal Westgate Stadium 11"},"dateTime":"2017-07-19T22:20","quals":"Descriptive Video Services|Closed Captioned","barg":false,"ticketURI":"http://www.fandango.com/tms.asp?t=AANOT&m=171221&d=2017-07-19"},{"theatre":{"id":"8498","name":"Regal Metropolitan Stadium 14"},"dateTime":"2017-07-19T13:10","quals":"Descriptive Video Services|Closed Captioned","barg":true,"ticketURI":"http://www.fandango.com/tms.asp?t=AALHE&m=171221&d=2017-07-19"},{"theatre":{"id":"8498","name":"Regal Metropolitan Stadium 14"},"dateTime":"2017-07-19T16:30","quals":"Descriptive Video Services|Closed Captioned","barg":true,"ticketURI":"http://www.fandango.com/tms.asp?t=AALHE&m=171221&d=2017-07-19"},{"theatre":{"id":"8498","name":"Regal Metropolitan Stadium 14"},"dateTime":"2017-07-19T19:40","quals":"Descriptive Video Services|Closed Captioned","barg":false,"ticketURI":"http://www.fandango.com/tms.asp?t=AALHE&m=171221&d=2017-07-19"},{"theatre":{"id":"8498","name":"Regal Metropolitan Stadium 14"},"dateTime":"2017-07-19T22:30","quals":"Descriptive Video Services|Closed Captioned","barg":false,"ticketURI":"http://www.fandango.com/tms.asp?t=AALHE&m=171221&d=2017-07-19"},{"theatre":{"id":"9306","name":"Cinemark Southpark Meadows"},"dateTime":"2017-07-19T10:50","quals":"Reserved Seating|Closed Captioned","barg":false,"ticketURI":"http://www.fandango.com/tms.asp?t=AAUIY&m=171221&d=2017-07-19"},{"theatre":{"id":"9306","name":"Cinemark Southpark Meadows"},"dateTime":"2017-07-19T13:50","quals":"Reserved Seating|Closed Captioned","barg":false,"ticketURI":"http://www.fandango.com/tms.asp?t=AAUIY&m=171221&d=2017-07-19"},{"theatre":{"id":"9306","name":"Cinemark Southpark Meadows"},"dateTime":"2017-07-19T16:40","quals":"Reserved Seating|Closed Captioned","barg":false,"ticketURI":"http://www.fandango.com/tms.asp?t=AAUIY&m=171221&d=2017-07-19"},{"theatre":{"id":"9306","name":"Cinemark Southpark Meadows"},"dateTime":"2017-07-19T19:30","quals":"Reserved Seating|Closed Captioned","barg":false,"ticketURI":"http://www.fandango.com/tms.asp?t=AAUIY&m=171221&d=2017-07-19"},{"theatre":{"id":"9306","name":"Cinemark Southpark Meadows"},"dateTime":"2017-07-19T22:20","quals":"Reserved Seating|Closed Captioned","barg":false,"ticketURI":"http://www.fandango.com/tms.asp?t=AAUIY&m=171221&d=2017-07-19"},{"theatre":{"id":"5084","name":"Alamo Drafthouse South Lamar"},"dateTime":"2017-07-19T12:00","barg":false,"ticketURI":"http://www.fandango.com/tms.asp?t=AATHS&m=171221&d=2017-07-19"},{"theatre":{"id":"5084","name":"Alamo Drafthouse South Lamar"},"dateTime":"2017-07-19T15:00","barg":false,"ticketURI":"http://www.fandango.com/tms.asp?t=AATHS&m=171221&d=2017-07-19"},{"theatre":{"id":"5084","name":"Alamo Drafthouse South Lamar"},"dateTime":"2017-07-19T16:50","barg":false,"ticketURI":"http://www.fandango.com/tms.asp?t=AATHS&m=171221&d=2017-07-19"},{"theatre":{"id":"5084","name":"Alamo Drafthouse South Lamar"},"dateTime":"2017-07-19T19:50","barg":false,"ticketURI":"http://www.fandango.com/tms.asp?t=AATHS&m=171221&d=2017-07-19"},{"theatre":{"id":"5084","name":"Alamo Drafthouse South Lamar"},"dateTime":"2017-07-19T21:15","barg":false,"ticketURI":"http://www.fandango.com/tms.asp?t=AATHS&m=171221&d=2017-07-19"},{"theatre":{"id":"5084","name":"Alamo Drafthouse South Lamar"},"dateTime":"2017-07-19T22:30","barg":false,"ticketURI":"http://www.fandango.com/tms.asp?t=AATHS&m=171221&d=2017-07-19"},{"theatre":{"id":"10569","name":"Alamo Drafthouse Slaughter Lane"},"dateTime":"2017-07-19T11:30","barg":false,"ticketURI":"http://www.fandango.com/tms.asp?t=AAWQE&m=171221&d=2017-07-19"},{"theatre":{"id":"10569","name":"Alamo Drafthouse Slaughter Lane"},"dateTime":"2017-07-19T15:00","barg":false,"ticketURI":"http://www.fandango.com/tms.asp?t=AAWQE&m=171221&d=2017-07-19"},{"theatre":{"id":"10569","name":"Alamo Drafthouse Slaughter Lane"},"dateTime":"2017-07-19T18:25","barg":false,"ticketURI":"http://www.fandango.com/tms.asp?t=AAWQE&m=171221&d=2017-07-19"},{"theatre":{"id":"10569","name":"Alamo Drafthouse Slaughter Lane"},"dateTime":"2017-07-19T19:15","barg":false,"ticketURI":"http://www.fandango.com/tms.asp?t=AAWQE&m=171221&d=2017-07-19"},{"theatre":{"id":"10569","name":"Alamo Drafthouse Slaughter Lane"},"dateTime":"2017-07-19T21:30","barg":false,"ticketURI":"http://www.fandango.com/tms.asp?t=AAWQE&m=171221&d=2017-07-19"}]},{"tmsId":"MV009757350000","rootId":"13746856","subType":"Feature Film","title":"Wish Upon","releaseYear":2017,"releaseDate":"2017-07-14","titleLang":"en","descriptionLang":"en","entityType":"Movie","genres":["Horror","Thriller"],"longDescription":"Jonathan Shannon (Ryan Phillippe) gives his 17-year-old daughter Clare (Joey King) an old music box that promises to grant its owner seven wishes. Skeptical at first, Clare becomes seduced by its dark powers when her life starts to radically improve with each wish. Everything seems perfect until she realizes that every wish she makes causes the people who are closest to her to die in violent and elaborate ways.","shortDescription":"An old music box that grants wishes causes a teen\'s loved ones to die in violent and elaborate ways.","topCast":["Joey King","Ryan Phillippe","Ki Hong Lee"],"directors":["John R. Leonetti"],"officialUrl":"http://www.wishuponmovie.com/","ratings":[{"body":"Motion Picture Association of America","code":"PG-13"}],"advisories":["Adult Language","Adult Situations","Violence"],"runTime":"PT01H29M","preferredImage":{"width":"240","height":"360","caption":{"content":"Wish Upon (2017)","lang":"en"},"uri":"assets/p13746856_p_v5_ac.jpg","category":"Poster Art","text":"yes","primary":"true"},"showtimes":[{"theatre":{"id":"8298","name":"Regal Westgate Stadium 11"},"dateTime":"2017-07-19T12:25","quals":"Descriptive Video Services|Closed Captioned","barg":true,"ticketURI":"http://www.fandango.com/tms.asp?t=AANOT&m=170418&d=2017-07-19"},{"theatre":{"id":"8298","name":"Regal Westgate Stadium 11"},"dateTime":"2017-07-19T14:20","quals":"Descriptive Video Services|Closed Captioned","barg":true,"ticketURI":"http://www.fandango.com/tms.asp?t=AANOT&m=170418&d=2017-07-19"},{"theatre":{"id":"8298","name":"Regal Westgate Stadium 11"},"dateTime":"2017-07-19T16:25","quals":"Descriptive Video Services|Closed Captioned","barg":true,"ticketURI":"http://www.fandango.com/tms.asp?t=AANOT&m=170418&d=2017-07-19"},{"theatre":{"id":"8298","name":"Regal Westgate Stadium 11"},"dateTime":"2017-07-19T18:30","quals":"Descriptive Video Services|Closed Captioned","barg":false,"ticketURI":"http://www.fandango.com/tms.asp?t=AANOT&m=170418&d=2017-07-19"},{"theatre":{"id":"8298","name":"Regal Westgate Stadium 11"},"dateTime":"2017-07-19T22:35","quals":"Descriptive Video Services|Closed Captioned","barg":false,"ticketURI":"http://www.fandango.com/tms.asp?t=AANOT&m=170418&d=2017-07-19"},{"theatre":{"id":"8498","name":"Regal Metropolitan Stadium 14"},"dateTime":"2017-07-19T12:15","quals":"Descriptive Video Services|Closed Captioned","barg":true,"ticketURI":"http://www.fandango.com/tms.asp?t=AALHE&m=170418&d=2017-07-19"},{"theatre":{"id":"8498","name":"Regal Metropolitan Stadium 14"},"dateTime":"2017-07-19T14:40","quals":"Descriptive Video Services|Closed Captioned","barg":true,"ticketURI":"http://www.fandango.com/tms.asp?t=AALHE&m=170418&d=2017-07-19"},{"theatre":{"id":"8498","name":"Regal Metropolitan Stadium 14"},"dateTime":"2017-07-19T17:25","quals":"Descriptive Video Services|Closed Captioned","barg":true,"ticketURI":"http://www.fandango.com/tms.asp?t=AALHE&m=170418&d=2017-07-19"},{"theatre":{"id":"8498","name":"Regal Metropolitan Stadium 14"},"dateTime":"2017-07-19T19:55","quals":"Descriptive Video Services|Closed Captioned","barg":false,"ticketURI":"http://www.fandango.com/tms.asp?t=AALHE&m=170418&d=2017-07-19"},{"theatre":{"id":"8498","name":"Regal Metropolitan Stadium 14"},"dateTime":"2017-07-19T22:25","quals":"Closed Captioned|Descriptive Video Services","barg":false,"ticketURI":"http://www.fandango.com/tms.asp?t=AALHE&m=170418&d=2017-07-19"},{"theatre":{"id":"9306","name":"Cinemark Southpark Meadows"},"dateTime":"2017-07-19T10:00","quals":"Reserved Seating|Lounger|Closed Captioned","barg":false,"ticketURI":"http://www.fandango.com/tms.asp?t=AAUIY&m=170418&d=2017-07-19"},{"theatre":{"id":"9306","name":"Cinemark Southpark Meadows"},"dateTime":"2017-07-19T12:20","quals":"Reserved Seating|Lounger|Closed Captioned","barg":false,"ticketURI":"http://www.fandango.com/tms.asp?t=AAUIY&m=170418&d=2017-07-19"},{"theatre":{"id":"9306","name":"Cinemark Southpark Meadows"},"dateTime":"2017-07-19T14:40","quals":"Reserved Seating|Lounger|Closed Captioned","barg":false,"ticketURI":"http://www.fandango.com/tms.asp?t=AAUIY&m=170418&d=2017-07-19"},{"theatre":{"id":"9306","name":"Cinemark Southpark Meadows"},"dateTime":"2017-07-19T17:00","quals":"Reserved Seating|Lounger|Closed Captioned","barg":false,"ticketURI":"http://www.fandango.com/tms.asp?t=AAUIY&m=170418&d=2017-07-19"},{"theatre":{"id":"9306","name":"Cinemark Southpark Meadows"},"dateTime":"2017-07-19T19:25","quals":"Lounger|Reserved Seating|Closed Captioned","barg":false,"ticketURI":"http://www.fandango.com/tms.asp?t=AAUIY&m=170418&d=2017-07-19"},{"theatre":{"id":"9306","name":"Cinemark Southpark Meadows"},"dateTime":"2017-07-19T21:40","quals":"Reserved Seating|Lounger|Closed Captioned","barg":false,"ticketURI":"http://www.fandango.com/tms.asp?t=AAUIY&m=170418&d=2017-07-19"}]},{"tmsId":"MV009046910000","rootId":"13019536","subType":"Feature Film","title":"The House","releaseYear":2017,"releaseDate":"2017-06-30","titleLang":"en","descriptionLang":"en","entityType":"Movie","genres":["Comedy"],"longDescription":"Scott and Kate Johansen must figure out a way to earn some money after their daughter\'s scholarship falls through. When all else fails, the desperate couple join forces with their neighbor Frank to start an underground casino in his home. As the cash rolls in and the good times fly, Scott and Kate soon learn that they may have bitten off more than they can chew.","shortDescription":"A couple and their neighbor start an underground casino in their suburban neighborhood.","topCast":["Will Ferrell","Amy Poehler","Jason Mantzoukas"],"directors":["Andrew Jay Cohen"],"officialUrl":"http://www.thehousemovie.com/","qualityRating":{"ratingsBody":"TMS","value":"1.5"},"ratings":[{"body":"Motion Picture Association of America","code":"R"}],"advisories":["Adult Language","Adult Situations","Brief Nudity","Violence"],"runTime":"PT01H28M","preferredImage":{"width":"240","height":"360","caption":{"content":"The House (2017)","lang":"en"},"uri":"assets/p13019536_p_v5_aa.jpg","category":"Poster Art","text":"yes","primary":"true"},"showtimes":[{"theatre":{"id":"8298","name":"Regal Westgate Stadium 11"},"dateTime":"2017-07-19T18:05","quals":"Descriptive Video Services|Closed Captioned","barg":false,"ticketURI":"http://www.fandango.com/tms.asp?t=AANOT&m=169891&d=2017-07-19"},{"theatre":{"id":"8298","name":"Regal Westgate Stadium 11"},"dateTime":"2017-07-19T20:15","quals":"Descriptive Video Services|Closed Captioned","barg":false,"ticketURI":"http://www.fandango.com/tms.asp?t=AANOT&m=169891&d=2017-07-19"},{"theatre":{"id":"8298","name":"Regal Westgate Stadium 11"},"dateTime":"2017-07-19T22:15","quals":"Descriptive Video Services|Closed Captioned","barg":false,"ticketURI":"http://www.fandango.com/tms.asp?t=AANOT&m=169891&d=2017-07-19"},{"theatre":{"id":"9306","name":"Cinemark Southpark Meadows"},"dateTime":"2017-07-19T22:20","quals":"Reserved Seating|Closed Captioned|Lounger","barg":false,"ticketURI":"http://www.fandango.com/tms.asp?t=AAUIY&m=169891&d=2017-07-19"}]},{"tmsId":"MV008806780000","rootId":"12798844","subType":"Feature Film","title":"Spider-Man: Homecoming 3D","releaseYear":2017,"releaseDate":"2017-07-07","titleLang":"en","descriptionLang":"en","entityType":"Movie","genres":["Fantasy","Action","Adventure","Comedy"],"longDescription":"Thrilled by his experience with the Avengers, young Peter Parker returns home to live with his Aunt May. Under the watchful eye of mentor Tony Stark, Parker starts to embrace his newfound identity as Spider-Man. He also tries to return to his normal daily routine -- distracted by thoughts of proving himself to be more than just a friendly neighborhood superhero. Peter must soon put his powers to the test when the evil Vulture emerges to threaten everything that he holds dear.","shortDescription":"High school student Peter Parker embraces his new identity as Spider-Man to battle the evil Vulture.","topCast":["Tom Holland","Michael Keaton","Robert Downey Jr."],"directors":["Jon Watts"],"officialUrl":"http://www.spidermanhomecoming.com/","qualityRating":{"ratingsBody":"TMS","value":"3"},"ratings":[{"body":"Motion Picture Association of America","code":"PG-13"}],"advisories":["Adult Language","Adult Situations","Violence"],"runTime":"PT02H13M","preferredImage":{"width":"240","height":"360","caption":{"content":"Spider-Man: Homecoming (2017)","lang":"en"},"uri":"assets/p12798844_p_v5_ab.jpg","category":"Poster Art","text":"yes","primary":"true"},"showtimes":[{"theatre":{"id":"8498","name":"Regal Metropolitan Stadium 14"},"dateTime":"2017-07-19T11:50","quals":"Descriptive Video Services|No Passes|Closed Captioned","barg":true,"ticketURI":"http://www.fandango.com/tms.asp?t=AALHE&m=161697&d=2017-07-19"},{"theatre":{"id":"8498","name":"Regal Metropolitan Stadium 14"},"dateTime":"2017-07-19T15:00","quals":"Closed Captioned|No Passes|Descriptive Video Services","barg":true,"ticketURI":"http://www.fandango.com/tms.asp?t=AALHE&m=161697&d=2017-07-19"},{"theatre":{"id":"8498","name":"Regal Metropolitan Stadium 14"},"dateTime":"2017-07-19T16:00","quals":"Descriptive Video Services|No Passes|Closed Captioned","barg":true,"ticketURI":"http://www.fandango.com/tms.asp?t=AALHE&m=161697&d=2017-07-19"},{"theatre":{"id":"8498","name":"Regal Metropolitan Stadium 14"},"dateTime":"2017-07-19T18:15","quals":"Descriptive Video Services|No Passes|Closed Captioned","barg":false,"ticketURI":"http://www.fandango.com/tms.asp?t=AALHE&m=161697&d=2017-07-19"},{"theatre":{"id":"8498","name":"Regal Metropolitan Stadium 14"},"dateTime":"2017-07-19T21:30","quals":"Descriptive Video Services|No Passes|Closed Captioned","barg":false,"ticketURI":"http://www.fandango.com/tms.asp?t=AALHE&m=161697&d=2017-07-19"},{"theatre":{"id":"8498","name":"Regal Metropolitan Stadium 14"},"dateTime":"2017-07-19T22:35","quals":"Descriptive Video Services|No Passes|Closed Captioned","barg":false,"ticketURI":"http://www.fandango.com/tms.asp?t=AALHE&m=161697&d=2017-07-19"},{"theatre":{"id":"9306","name":"Cinemark Southpark Meadows"},"dateTime":"2017-07-19T12:10","quals":"Reserved Seating|Closed Captioned|Luxury Lounger RealD 3D","barg":false,"ticketURI":"http://www.fandango.com/tms.asp?t=AAUIY&m=161697&d=2017-07-19"},{"theatre":{"id":"9306","name":"Cinemark Southpark Meadows"},"dateTime":"2017-07-19T13:20","quals":"Reserved Seating|Closed Captioned|Luxury Lounger RealD 3D","barg":false,"ticketURI":"http://www.fandango.com/tms.asp?t=AAUIY&m=161697&d=2017-07-19"},{"theatre":{"id":"9306","name":"Cinemark Southpark Meadows"},"dateTime":"2017-07-19T18:50","quals":"Reserved Seating|Closed Captioned|Luxury Lounger RealD 3D","barg":false,"ticketURI":"http://www.fandango.com/tms.asp?t=AAUIY&m=161697&d=2017-07-19"},{"theatre":{"id":"9306","name":"Cinemark Southpark Meadows"},"dateTime":"2017-07-19T22:25","quals":"Reserved Seating|Closed Captioned|Luxury Lounger RealD 3D","barg":false,"ticketURI":"http://www.fandango.com/tms.asp?t=AAUIY&m=161697&d=2017-07-19"}]},{"tmsId":"MV008578760000","rootId":"12608063","subType":"Feature Film","title":"Transformers: The Last Knight","releaseYear":2017,"releaseDate":"2017-06-21","titleLang":"en","descriptionLang":"en","entityType":"Movie","genres":["Action","Adventure","Science fiction","Fantasy"],"longDescription":"Humans are at war with the Transformers, and Optimus Prime is gone. The key to saving the future lies buried in the secrets of the past and the hidden history of Transformers on Earth. Now, it\'s up to the unlikely alliance of inventor Cade Yeager, Bumblebee, an English lord and an Oxford professor to save the world.","shortDescription":"Cade Yeager forms an unlikely alliance as the war between Transformers and humans threatens Earth.","topCast":["Mark Wahlberg","Anthony Hopkins","Josh Duhamel"],"directors":["Michael Bay"],"officialUrl":"http://www.transformersmovie.com/","qualityRating":{"ratingsBody":"TMS","value":"2"},"ratings":[{"body":"Motion Picture Association of America","code":"PG-13"}],"advisories":["Adult Language","Adult Situations","Violence"],"runTime":"PT02H29M","preferredImage":{"width":"240","height":"360","caption":{"content":"Transformers: The Last Knight (2017)","lang":"en"},"uri":"assets/p12608063_p_v5_ai.jpg","category":"Poster Art","text":"yes","primary":"true"},"showtimes":[{"theatre":{"id":"8498","name":"Regal Metropolitan Stadium 14"},"dateTime":"2017-07-19T11:50","quals":"Descriptive Video Services|Closed Captioned","barg":true,"ticketURI":"http://www.fandango.com/tms.asp?t=AALHE&m=159489&d=2017-07-19"},{"theatre":{"id":"8498","name":"Regal Metropolitan Stadium 14"},"dateTime":"2017-07-19T15:10","quals":"Descriptive Video Services|Closed Captioned","barg":true,"ticketURI":"http://www.fandango.com/tms.asp?t=AALHE&m=159489&d=2017-07-19"},{"theatre":{"id":"8498","name":"Regal Metropolitan Stadium 14"},"dateTime":"2017-07-19T18:30","quals":"Descriptive Video Services|Closed Captioned","barg":false,"ticketURI":"http://www.fandango.com/tms.asp?t=AALHE&m=159489&d=2017-07-19"},{"theatre":{"id":"8498","name":"Regal Metropolitan Stadium 14"},"dateTime":"2017-07-19T22:00","quals":"Descriptive Video Services|Closed Captioned","barg":false,"ticketURI":"http://www.fandango.com/tms.asp?t=AALHE&m=159489&d=2017-07-19"},{"theatre":{"id":"9306","name":"Cinemark Southpark Meadows"},"dateTime":"2017-07-19T11:45","quals":"Reserved Seating|Closed Captioned|Lounger","barg":false,"ticketURI":"http://www.fandango.com/tms.asp?t=AAUIY&m=159489&d=2017-07-19"},{"theatre":{"id":"9306","name":"Cinemark Southpark Meadows"},"dateTime":"2017-07-19T15:15","quals":"Reserved Seating|Closed Captioned|Lounger","barg":false,"ticketURI":"http://www.fandango.com/tms.asp?t=AAUIY&m=159489&d=2017-07-19"},{"theatre":{"id":"9306","name":"Cinemark Southpark Meadows"},"dateTime":"2017-07-19T18:45","quals":"Reserved Seating|Closed Captioned|Lounger","barg":false,"ticketURI":"http://www.fandango.com/tms.asp?t=AAUIY&m=159489&d=2017-07-19"},{"theatre":{"id":"9306","name":"Cinemark Southpark Meadows"},"dateTime":"2017-07-19T22:15","quals":"Reserved Seating|Closed Captioned|Lounger","barg":false,"ticketURI":"http://www.fandango.com/tms.asp?t=AAUIY&m=159489&d=2017-07-19"}]},{"tmsId":"MV008030020000","rootId":"12126545","subType":"Feature Film","title":"War for the Planet of the Apes 3D","releaseYear":2017,"releaseDate":"2017-07-14","titleLang":"en","descriptionLang":"en","entityType":"Movie","genres":["Science fiction","Action","Adventure"],"longDescription":"Caesar (Andy Serkis) and his apes are forced into a deadly conflict with an army of humans led by a ruthless colonel (Woody Harrelson). After the apes suffer unimaginable losses, Caesar wrestles with his darker instincts and begins his own mythic quest to avenge his kind. As the journey finally brings them face to face, Caesar and the colonel are pitted against each other in an epic battle that will determine the fate of both of their species and the future of the planet.","shortDescription":"A colonel leads his troops in a deadly battle against Caesar and his army of intelligent apes.","topCast":["Andy Serkis","Woody Harrelson","Steve Zahn"],"directors":["Matt Reeves"],"officialUrl":"http://www.foxmovies.com/movies/war-for-the-planet-of-the-apes","qualityRating":{"ratingsBody":"TMS","value":"3.5"},"ratings":[{"body":"Motion Picture Association of America","code":"PG-13"}],"advisories":["Adult Situations","Violence"],"runTime":"PT02H22M","preferredImage":{"width":"240","height":"360","caption":{"content":"War for the Planet of the Apes (2017)","lang":"en"},"uri":"assets/p12126545_p_v5_ac.jpg","category":"Poster Art","text":"yes","primary":"true"},"showtimes":[{"theatre":{"id":"8498","name":"Regal Metropolitan Stadium 14"},"dateTime":"2017-07-19T12:00","quals":"Descriptive Video Services|No Passes|Closed Captioned","barg":true,"ticketURI":"http://www.fandango.com/tms.asp?t=AALHE&m=154459&d=2017-07-19"},{"theatre":{"id":"8498","name":"Regal Metropolitan Stadium 14"},"dateTime":"2017-07-19T15:30","quals":"Descriptive Video Services|No Passes|Closed Captioned","barg":true,"ticketURI":"http://www.fandango.com/tms.asp?t=AALHE&m=154459&d=2017-07-19"},{"theatre":{"id":"8498","name":"Regal Metropolitan Stadium 14"},"dateTime":"2017-07-19T18:50","quals":"Descriptive Video Services|No Passes|Closed Captioned","barg":false,"ticketURI":"http://www.fandango.com/tms.asp?t=AALHE&m=154459&d=2017-07-19"},{"theatre":{"id":"8498","name":"Regal Metropolitan Stadium 14"},"dateTime":"2017-07-19T22:10","quals":"Descriptive Video Services|No Passes|Closed Captioned","barg":false,"ticketURI":"http://www.fandango.com/tms.asp?t=AALHE&m=154459&d=2017-07-19"},{"theatre":{"id":"9306","name":"Cinemark Southpark Meadows"},"dateTime":"2017-07-19T14:50","quals":"Reserved Seating|Luxury Lounger RealD 3D|Closed Captioned","barg":false,"ticketURI":"http://www.fandango.com/tms.asp?t=AAUIY&m=154459&d=2017-07-19"},{"theatre":{"id":"9306","name":"Cinemark Southpark Meadows"},"dateTime":"2017-07-19T18:35","quals":"Reserved Seating|Luxury Lounger RealD 3D|Closed Captioned","barg":false,"ticketURI":"http://www.fandango.com/tms.asp?t=AAUIY&m=154459&d=2017-07-19"},{"theatre":{"id":"9306","name":"Cinemark Southpark Meadows"},"dateTime":"2017-07-19T21:45","quals":"Reserved Seating|Luxury Lounger RealD 3D|Closed Captioned","barg":false,"ticketURI":"http://www.fandango.com/tms.asp?t=AAUIY&m=154459&d=2017-07-19"}]},{"tmsId":"MV009819630000","rootId":"13042513","subType":"Feature Film","title":"47 Meters Down","releaseYear":2016,"releaseDate":"2016","titleLang":"en","descriptionLang":"en","entityType":"Movie","genres":["Thriller","Horror","Adventure"],"longDescription":"Young sisters Kate and Lisa and travel to Mexico for a vacation filled with sun, fun and adventure. Lisa needs some extra persuasion when Kate suggests that they go diving in shark-infested waters. Safe in their protective cage, the thrill-seeking siblings come face to face with a group of majestic great whites. Their worst fears soon become a reality when the cage breaks away from their boat, sending them plummeting to the ocean floor with a dwindling supply of oxygen.","shortDescription":"Great white sharks circle two sisters after they become trapped in a cage on the ocean floor.","topCast":["Claire Holt","Mandy Moore","Chris J. Johnson"],"directors":["Johannes Roberts"],"qualityRating":{"ratingsBody":"TMS","value":"2.5"},"ratings":[{"body":"Motion Picture Association of America","code":"PG-13"}],"advisories":["Adult Language","Adult Situations","Violence"],"runTime":"PT01H29M","preferredImage":{"width":"240","height":"360","caption":{"content":"47 Meters Down (2016)","lang":"en"},"uri":"assets/p13042513_p_v5_ad.jpg","category":"Poster Art","text":"yes","primary":"true"},"showtimes":[{"theatre":{"id":"8498","name":"Regal Metropolitan Stadium 14"},"dateTime":"2017-07-19T12:10","quals":"Descriptive Video Services|Closed Captioned","barg":true,"ticketURI":"http://www.fandango.com/tms.asp?t=AALHE&m=171468&d=2017-07-19"},{"theatre":{"id":"8498","name":"Regal Metropolitan Stadium 14"},"dateTime":"2017-07-19T14:30","quals":"Descriptive Video Services|Closed Captioned","barg":true,"ticketURI":"http://www.fandango.com/tms.asp?t=AALHE&m=171468&d=2017-07-19"},{"theatre":{"id":"8498","name":"Regal Metropolitan Stadium 14"},"dateTime":"2017-07-19T17:10","quals":"Descriptive Video Services|Closed Captioned","barg":true,"ticketURI":"http://www.fandango.com/tms.asp?t=AALHE&m=171468&d=2017-07-19"},{"theatre":{"id":"8498","name":"Regal Metropolitan Stadium 14"},"dateTime":"2017-07-19T20:15","quals":"Descriptive Video Services|Closed Captioned","barg":false,"ticketURI":"http://www.fandango.com/tms.asp?t=AALHE&m=171468&d=2017-07-19"},{"theatre":{"id":"8498","name":"Regal Metropolitan Stadium 14"},"dateTime":"2017-07-19T22:40","quals":"Descriptive Video Services|Closed Captioned","barg":false,"ticketURI":"http://www.fandango.com/tms.asp?t=AALHE&m=171468&d=2017-07-19"},{"theatre":{"id":"9306","name":"Cinemark Southpark Meadows"},"dateTime":"2017-07-19T18:40","quals":"Reserved Seating|Closed Captioned|Lounger","barg":false,"ticketURI":"http://www.fandango.com/tms.asp?t=AAUIY&m=171468&d=2017-07-19"},{"theatre":{"id":"9306","name":"Cinemark Southpark Meadows"},"dateTime":"2017-07-19T21:10","quals":"Reserved Seating|Closed Captioned|Lounger","barg":false,"ticketURI":"http://www.fandango.com/tms.asp?t=AAUIY&m=171468&d=2017-07-19"}]},{"tmsId":"MV006165250000","rootId":"11006033","subType":"Feature Film","title":"The Mummy","releaseYear":2017,"releaseDate":"2017-06-09","titleLang":"en","descriptionLang":"en","entityType":"Movie","genres":["Fantasy","Horror","Action","Adventure"],"longDescription":"Nick Morton is a soldier of fortune who plunders ancient sites for timeless artifacts and sells them to the highest bidder. When Nick and his partner come under attack in the Middle East, the ensuing battle accidentally unearths Ahmanet, a betrayed Egyptian princess who was entombed under the desert for thousands of years. With her powers constantly evolving, Morton must now stop the resurrected monster as she embarks on a furious rampage through the streets of London.","shortDescription":"A soldier of fortune battles an ancient, resurrected princess as she embarks on a rampage in London.","topCast":["Tom Cruise","Russell Crowe","Annabelle Wallis"],"directors":["Alex Kurtzman"],"officialUrl":"http://www.themummy.com/","qualityRating":{"ratingsBody":"TMS","value":"2"},"ratings":[{"body":"Motion Picture Association of America","code":"PG-13"}],"advisories":["Adult Language","Adult Situations","Nudity","Violence"],"runTime":"PT01H47M","preferredImage":{"width":"240","height":"360","caption":{"content":"The Mummy (2017)","lang":"en"},"uri":"assets/p11006033_p_v5_ai.jpg","category":"Poster Art","text":"yes","primary":"true"},"showtimes":[{"theatre":{"id":"8498","name":"Regal Metropolitan Stadium 14"},"dateTime":"2017-07-19T13:15","quals":"Descriptive Video Services|Closed Captioned","barg":true,"ticketURI":"http://www.fandango.com/tms.asp?t=AALHE&m=141970&d=2017-07-19"},{"theatre":{"id":"8498","name":"Regal Metropolitan Stadium 14"},"dateTime":"2017-07-19T16:10","quals":"Descriptive Video Services|Closed Captioned","barg":true,"ticketURI":"http://www.fandango.com/tms.asp?t=AALHE&m=141970&d=2017-07-19"},{"theatre":{"id":"8498","name":"Regal Metropolitan Stadium 14"},"dateTime":"2017-07-19T19:00","quals":"Descriptive Video Services|Closed Captioned","barg":false,"ticketURI":"http://www.fandango.com/tms.asp?t=AALHE&m=141970&d=2017-07-19"},{"theatre":{"id":"8498","name":"Regal Metropolitan Stadium 14"},"dateTime":"2017-07-19T21:50","quals":"Descriptive Video Services|Closed Captioned","barg":false,"ticketURI":"http://www.fandango.com/tms.asp?t=AALHE&m=141970&d=2017-07-19"}]},{"tmsId":"MV009714670000","rootId":"13690994","subType":"Feature Film","title":"Paris Can Wait","releaseYear":2016,"releaseDate":"2016-09-12","titleLang":"en","descriptionLang":"en","entityType":"Movie","genres":["Romantic comedy"],"longDescription":"Anne (Diane Lane) is at a crossroads in her life. Married to a successful but inattentive movie producer (Alec Baldwin), she unexpectedly finds herself taking a car trip from Cannes to Paris with her husband\'s business associate (Arnaud Viard). What should be a seven-hour drive turns into a carefree two-day adventure replete with diversions involving picturesque sights, fine food and wine, humor, wisdom and romance, reawakening Anne\'s senses and giving her a new lust for life.","shortDescription":"A woman must fend off advances from her husband\'s colleague while taking a road trip through France.","topCast":["Diane Lane","Arnaud Viard","Alec Baldwin"],"directors":["Eleanor Coppola"],"officialUrl":"http://sonyclassics.com/pariscanwait/#","qualityRating":{"ratingsBody":"TMS","value":"2.5"},"ratings":[{"body":"Motion Picture Association of America","code":"PG"}],"advisories":["Adult Language","Adult Situations"],"runTime":"PT01H32M","preferredImage":{"width":"240","height":"360","caption":{"content":"Paris Can Wait (2016)","lang":"en"},"uri":"assets/p13690994_p_v5_aa.jpg","category":"Poster Art","text":"yes","primary":"true"},"showtimes":[{"theatre":{"id":"8498","name":"Regal Metropolitan Stadium 14"},"dateTime":"2017-07-19T19:45","quals":"Descriptive Video Services|Closed Captioned","barg":false,"ticketURI":"http://www.fandango.com/tms.asp?t=AALHE&m=170085&d=2017-07-19"},{"theatre":{"id":"8498","name":"Regal Metropolitan Stadium 14"},"dateTime":"2017-07-19T22:15","quals":"Descriptive Video Services|Closed Captioned","barg":false,"ticketURI":"http://www.fandango.com/tms.asp?t=AALHE&m=170085&d=2017-07-19"}]},{"tmsId":"MV008131280000","rootId":"12216968","subType":"Feature Film","title":"Cars 3","releaseYear":2017,"releaseDate":"2017-06-16","titleLang":"en","descriptionLang":"en","entityType":"Movie","genres":["Comedy","Adventure","Animated","Children"],"audience":"Children","longDescription":"Blindsided by a new generation of blazing-fast cars, the legendary Lighting McQueen finds himself pushed out of the sport that he loves. Hoping to get back in the game, he turns to Cruz Ramirez, an eager young technician who has her own plans for winning. With inspiration from the Fabulous Hudson Hornet and a few unexpected turns, No. 95 prepares to compete on Piston Cup Racing\'s biggest stage.","shortDescription":"The legendary Lightning McQueen prepares to compete on Piston Cup Racing\'s biggest stage.","topCast":["Owen Wilson","Cristela Alonzo","Armie Hammer"],"directors":["Brian Fee"],"officialUrl":"http://movies.disney.com/cars-3","qualityRating":{"ratingsBody":"TMS","value":"2.5"},"ratings":[{"body":"Motion Picture Association of America","code":"G"}],"runTime":"PT01H49M","animation":"Animated","preferredImage":{"width":"240","height":"360","caption":{"content":"Cars 3: The IMAX 2D Experience (2017)","lang":"en"},"uri":"assets/p12216968_p_v5_ad.jpg","category":"Poster Art","text":"yes","primary":"true"},"showtimes":[{"theatre":{"id":"9306","name":"Cinemark Southpark Meadows"},"dateTime":"2017-07-19T09:55","quals":"Reserved Seating|Closed Captioned|Lounger","barg":false,"ticketURI":"http://www.fandango.com/tms.asp?t=AAUIY&m=155973&d=2017-07-19"},{"theatre":{"id":"9306","name":"Cinemark Southpark Meadows"},"dateTime":"2017-07-19T12:30","quals":"Reserved Seating|Closed Captioned|Lounger","barg":false,"ticketURI":"http://www.fandango.com/tms.asp?t=AAUIY&m=155973&d=2017-07-19"},{"theatre":{"id":"9306","name":"Cinemark Southpark Meadows"},"dateTime":"2017-07-19T15:20","quals":"Reserved Seating|Closed Captioned|Lounger","barg":false,"ticketURI":"http://www.fandango.com/tms.asp?t=AAUIY&m=155973&d=2017-07-19"}]},{"tmsId":"MV010198290000","rootId":"14342748","subType":"Feature Film","title":"Jagga Jasoos","releaseYear":2017,"releaseDate":"2017-07-14","titleLang":"hi","descriptionLang":"en","entityType":"Movie","genres":["Musical","Adventure","Romantic comedy"],"longDescription":"Jagga, a gifted teenage detective, embarks on a quest to find her missing father with help from a female companion.","shortDescription":"Jagga, a gifted teenage detective, embarks on a quest to find her missing father.","topCast":["Ranbir Kapoor","Katrina Kaif","Sayani Gupta"],"directors":["Anurag Basu"],"advisories":["Adult Situations","Violence"],"runTime":"PT03H00M","preferredImage":{"uri":"tvbanners/generic/generic_tvbanners_v5.png"},"showtimes":[{"theatre":{"id":"9306","name":"Cinemark Southpark Meadows"},"dateTime":"2017-07-19T11:10","quals":"Hindi|Reserved Seating|Lounger","barg":false,"ticketURI":"http://www.fandango.com/tms.asp?t=AAUIY&m=140637&d=2017-07-19"},{"theatre":{"id":"9306","name":"Cinemark Southpark Meadows"},"dateTime":"2017-07-19T14:50","quals":"Hindi|Reserved Seating|Lounger","barg":false,"ticketURI":"http://www.fandango.com/tms.asp?t=AAUIY&m=140637&d=2017-07-19"},{"theatre":{"id":"9306","name":"Cinemark Southpark Meadows"},"dateTime":"2017-07-19T18:30","quals":"Hindi|Reserved Seating|Lounger","barg":false,"ticketURI":"http://www.fandango.com/tms.asp?t=AAUIY&m=140637&d=2017-07-19"},{"theatre":{"id":"9306","name":"Cinemark Southpark Meadows"},"dateTime":"2017-07-19T22:10","quals":"Hindi|Reserved Seating|Lounger","barg":false,"ticketURI":"http://www.fandango.com/tms.asp?t=AAUIY&m=140637&d=2017-07-19"}]},{"tmsId":"MV009866910000","rootId":"13898074","subType":"Feature Film","title":"A Ghost Story","releaseYear":2017,"releaseDate":"2017-01-22","titleLang":"en","descriptionLang":"en","entityType":"Movie","genres":["Drama","Fantasy","Romance"],"longDescription":"Recently deceased, a white-sheeted ghost returns to his suburban home to console his bereft wife, only to find that in his spectral state, he has become unstuck in time, forced to watch passively as the life he knew and the woman he loves slowly slip away. Increasingly unmoored, the ghost embarks on a cosmic journey through memory and history, confronting life\'s ineffable questions and the enormity of existence.","shortDescription":"A recently deceased, white-sheeted ghost returns home to connect with his beloved wife once more.","topCast":["Casey Affleck","Rooney Mara","Kenneisha Thompson"],"directors":["David Lowery"],"officialUrl":"https://a24films.com/films/a-ghost-story","qualityRating":{"ratingsBody":"TMS","value":"3.5"},"ratings":[{"body":"Motion Picture Association of America","code":"R"}],"advisories":["Adult Language","Adult Situations"],"runTime":"PT01H30M","preferredImage":{"width":"240","height":"360","caption":{"content":"A Ghost Story (2017)","lang":"en"},"uri":"assets/p13898074_p_v5_aa.jpg","category":"Poster Art","text":"yes","primary":"true"},"showtimes":[{"theatre":{"id":"5084","name":"Alamo Drafthouse South Lamar"},"dateTime":"2017-07-19T11:45","barg":false,"ticketURI":"http://www.fandango.com/tms.asp?t=AATHS&m=171923&d=2017-07-19"},{"theatre":{"id":"5084","name":"Alamo Drafthouse South Lamar"},"dateTime":"2017-07-19T14:15","barg":false,"ticketURI":"http://www.fandango.com/tms.asp?t=AATHS&m=171923&d=2017-07-19"},{"theatre":{"id":"5084","name":"Alamo Drafthouse South Lamar"},"dateTime":"2017-07-19T16:45","barg":false,"ticketURI":"http://www.fandango.com/tms.asp?t=AATHS&m=171923&d=2017-07-19"},{"theatre":{"id":"5084","name":"Alamo Drafthouse South Lamar"},"dateTime":"2017-07-19T18:30","barg":false,"ticketURI":"http://www.fandango.com/tms.asp?t=AATHS&m=171923&d=2017-07-19"},{"theatre":{"id":"5084","name":"Alamo Drafthouse South Lamar"},"dateTime":"2017-07-19T21:50","barg":false,"ticketURI":"http://www.fandango.com/tms.asp?t=AATHS&m=171923&d=2017-07-19"}]},{"tmsId":"MV009941760000","rootId":"13982101","subType":"Feature Film","title":"Beatriz at Dinner","releaseYear":2017,"releaseDate":"2017-01-23","titleLang":"en","descriptionLang":"en","entityType":"Movie","genres":["Dark comedy"],"longDescription":"Beatriz is a Los Angeles massage therapist and holistic healer who drives to the seaside mansion of her client Cathy. When her old Volkswagen breaks down, she receives a friendly invitation from Cathy to stay for a seemingly innocent business dinner. As the guests arrive and the wine starts to flow, Beatriz finds herself in an escalating war of words with Doug Strutt, a ruthless real estate mogul who cares more about money than people.","shortDescription":"A holistic healer clashes with a ruthless real estate mogul at a client\'s dinner party.","topCast":["Salma Hayek","John Lithgow","Connie Britton"],"directors":["Miguel Arteta"],"officialUrl":"http://www.beatrizatdinnermovie.com/","qualityRating":{"ratingsBody":"TMS","value":"3"},"ratings":[{"body":"Motion Picture Association of America","code":"R"}],"advisories":["Adult Language","Adult Situations","Violence"],"runTime":"PT01H23M","preferredImage":{"width":"240","height":"360","uri":"assets/p13982101_v_v5_aa.jpg","category":"VOD Art","text":"yes","primary":"true"},"showtimes":[{"theatre":{"id":"5084","name":"Alamo Drafthouse South Lamar"},"dateTime":"2017-07-19T13:30","barg":false,"ticketURI":"http://www.fandango.com/tms.asp?t=AATHS&m=172588&d=2017-07-19"},{"theatre":{"id":"5084","name":"Alamo Drafthouse South Lamar"},"dateTime":"2017-07-19T16:10","barg":false,"ticketURI":"http://www.fandango.com/tms.asp?t=AATHS&m=172588&d=2017-07-19"}]},{"tmsId":"MV000979020000","rootId":"26294","subType":"Feature Film","title":"The Broken Hearts Club","releaseYear":2000,"releaseDate":"2000-01-29","titleLang":"en","descriptionLang":"en","entityType":"Movie","genres":["Comedy drama"],"longDescription":"A fresh, funny, real story about a group of gay men in Hollywood, their lovers and friends, and the often hilarious, occasionally poignant space in between -- that is if they can get any space at all. As they make their ways in the world with and without each other, they are suddenly faced with an unexpected tragedy. The group finds comfort the only way they ever have -- together.","shortDescription":"Gay friends (Timothy Olyphant, Andrew Keegan, John Mahoney) search for true love in West Hollywood.","topCast":["Timothy Olyphant","Andrew Keegan","John Mahoney"],"directors":["Greg Berlanti"],"officialUrl":"http://www.thebrokenheartsclub.com/","qualityRating":{"ratingsBody":"TMS","value":"2.5"},"ratings":[{"body":"Motion Picture Association of America","code":"R"}],"advisories":["Adult Language","Adult Situations"],"runTime":"PT01H34M","preferredImage":{"width":"240","height":"360","uri":"assets/p26294_v_v5_aa.jpg","category":"VOD Art","text":"yes"},"showtimes":[{"theatre":{"id":"5084","name":"Alamo Drafthouse South Lamar"},"dateTime":"2017-07-19T19:30","barg":false,"ticketURI":"http://www.fandango.com/tms.asp?t=AATHS&m=24993&d=2017-07-19"}]},{"tmsId":"EV000007671853","rootId":"14040867","subType":"Theatre Event","title":"Kids Camp: Trolls","titleLang":"en","entityType":"Movie","preferredImage":{"uri":"tvbanners/generic/generic_tvbanners_v5.png"},"showtimes":[{"theatre":{"id":"10569","name":"Alamo Drafthouse Slaughter Lane"},"dateTime":"2017-07-19T10:15","quals":"A.M.","barg":false,"ticketURI":"http://www.fandango.com/tms.asp?t=AAWQE&m=173061&d=2017-07-19"}]}]'
p30
sS'encoding'
p31
S'UTF-8'
p32
sS'url'
p33
Vhttp://data.tmsapi.com/v1.1/movies/showings?startDate=2017-07-19&api_key=t6ubhgkku8gu397wbnpjkb4j&zip=78745
p34
sS'status_code'
p35
I200
sS'request'
p36
g0
(crequests.models
PreparedRequest
p37
g2
Ntp38
Rp39
(dp40
S'body'
p41
Nsg33
S'http://data.tmsapi.com/v1.1/movies/showings?startDate=2017-07-19&api_key=t6ubhgkku8gu397wbnpjkb4j&zip=78745'
p42
sS'hooks'
p43
(dp44
S'response'
p45
(lp46
ssS'headers'
p47
g0
(crequests.structures
CaseInsensitiveDict
p48
g2
Ntp49
Rp50
(dp51
S'_store'
p52
curllib3.packages.ordered_dict
OrderedDict
p53
((lp54
(lp55
S'connection'
p56
a(S'Connection'
p57
S'keep-alive'
p58
tp59
aa(lp60
S'accept-encoding'
p61
a(S'Accept-Encoding'
p62
S'gzip, deflate'
p63
tp64
aa(lp65
S'accept'
p66
a(S'Accept'
p67
S'*/*'
p68
tp69
aa(lp70
S'user-agent'
p71
a(S'User-Agent'
p72
S'python-requests/2.18.1'
p73
tp74
aatp75
Rp76
sbsS'_body_position'
p77
Nsg27
g0
(g7
g2
Ntp78
Rp79
(dp80
g11
I1500390810
sg12
(icookielib
DefaultCookiePolicy
p81
(dp82
g15
I01
sg16
I0
sg17
Nsg18
Nsg19
I00
sg20
I00
sg11
I1500390810
sg21
I00
sg22
I00
sg23
I00
sg24
I00
sg25
(tsg26
I01
sbsg27
(dp83
sbsS'method'
p84
S'GET'
p85
sbsS'elapsed'
p86
cdatetime
timedelta
p87
(I0
I0
I581551
tp88
Rp89
sg47
g0
(g48
g2
Ntp90
Rp91
(dp92
g52
g53
((lp93
(lp94
S'cache-control'
p95
a(S'Cache-Control'
p96
S'max-age=92'
p97
tp98
aa(lp99
S'content-encoding'
p100
a(S'Content-Encoding'
p101
S'gzip'
p102
tp103
aa(lp104
S'content-type'
p105
a(S'Content-Type'
p106
S'application/json;charset=UTF-8'
p107
tp108
aa(lp109
S'date'
p110
a(S'Date'
p111
S'Tue, 18 Jul 2017 15:00:02 GMT'
p112
tp113
aa(lp114
S'server'
p115
a(S'Server'
p116
S'Mashery Proxy'
p117
tp118
aa(lp119
S'vary'
p120
a(S'Vary'
p121
S'Accept-Encoding'
p122
tp123
aa(lp124
S'x-mashery-responder'
p125
a(S'X-Mashery-Responder'
p126
S'prod-j-worker-us-west-1b-64.mashery.com'
p127
tp128
aa(lp129
S'x-powered-by'
p130
a(S'X-Powered-By'
p131
S'PHP/5.5.9-1ubuntu4.19'
p132
tp133
aa(lp134
S'transfer-encoding'
p135
a(S'transfer-encoding'
p136
S'chunked'
p137
tp138
aa(lp139
S'connection'
p140
a(S'Connection'
p141
S'keep-alive'
p142
tp143
aatp144
Rp145
sbsS'reason'
p146
S'OK'
p147
sS'history'
p148
(lp149
sb.