ccopy_reg
_reconstructor
p0
(crequests.models
Response
p1
c__builtin__
object
p2
Ntp3
Rp4
(dp5
S'cookies'
p6
g0
(crequests.cookies
RequestsCookieJar
p7
g2
Ntp8
Rp9
(dp10
S'_now'
p11
I1501003510
sS'_policy'
p12
(icookielib
DefaultCookiePolicy
p13
(dp14
S'strict_rfc2965_unverifiable'
p15
I01
sS'strict_ns_domain'
p16
I0
sS'_allowed_domains'
p17
NsS'rfc2109_as_netscape'
p18
NsS'rfc2965'
p19
I00
sS'strict_domain'
p20
I00
sg11
I1501003510
sS'strict_ns_set_path'
p21
I00
sS'strict_ns_unverifiable'
p22
I00
sS'strict_ns_set_initial_dollar'
p23
I00
sS'hide_cookie2'
p24
I00
sS'_blocked_domains'
p25
(tsS'netscape'
p26
I01
sbsS'_cookies'
p27
(dp28
sbsS'_content'
p29
S'[{"tmsId":"MV007898130000","rootId":"12009522","subType":"Feature Film","title":"Despicable Me 3","releaseYear":2017,"releaseDate":"2017-06-30","titleLang":"en","descriptionLang":"en","entityType":"Movie","genres":["Comedy","Adventure","Animated","Children"],"audience":"Children","longDescription":"The mischievous Minions hope that Gru will return to a life of crime after the new boss of the Anti-Villain League fires him. Instead, Gru decides to remain retired and travel to Freedonia to meet his long-lost twin brother for the first time. The reunited siblings soon find themselves in an uneasy alliance to take down the elusive Balthazar Bratt, a former 1980s child star who seeks revenge against the world.","shortDescription":"Gru and his twin brother join forces to take down a former 1980s child star who\'s out for revenge.","topCast":["Steve Carell","Kristen Wiig","Trey Parker"],"directors":["Pierre Coffin","Kyle Balda"],"officialUrl":"http://www.despicable.me/","qualityRating":{"ratingsBody":"TMS","value":"2.5"},"ratings":[{"body":"Motion Picture Association of America","code":"PG"}],"advisories":["Adult Situations"],"runTime":"PT01H30M","animation":"Animated","preferredImage":{"width":"240","height":"360","caption":{"content":"Despicable Me 3 (2017)","lang":"en"},"uri":"assets/p12009522_p_v5_ac.jpg","category":"Poster Art","text":"yes","primary":"true"},"showtimes":[{"theatre":{"id":"8298","name":"Regal Westgate Stadium 11"},"dateTime":"2017-07-26T10:00","quals":"Descriptive Video Services|Closed Captioned","barg":true,"ticketURI":"http://www.fandango.com/tms.asp?t=AANOT&m=153152&d=2017-07-26"},{"theatre":{"id":"8298","name":"Regal Westgate Stadium 11"},"dateTime":"2017-07-26T13:30","quals":"Descriptive Video Services|Closed Captioned","barg":true,"ticketURI":"http://www.fandango.com/tms.asp?t=AANOT&m=153152&d=2017-07-26"},{"theatre":{"id":"8298","name":"Regal Westgate Stadium 11"},"dateTime":"2017-07-26T15:45","quals":"Descriptive Video Services|Closed Captioned","barg":true,"ticketURI":"http://www.fandango.com/tms.asp?t=AANOT&m=153152&d=2017-07-26"},{"theatre":{"id":"8298","name":"Regal Westgate Stadium 11"},"dateTime":"2017-07-26T18:00","quals":"Descriptive Video Services|Closed Captioned","barg":false,"ticketURI":"http://www.fandango.com/tms.asp?t=AANOT&m=153152&d=2017-07-26"},{"theatre":{"id":"8298","name":"Regal Westgate Stadium 11"},"dateTime":"2017-07-26T20:15","quals":"Descriptive Video Services|Closed Captioned","barg":false,"ticketURI":"http://www.fandango.com/tms.asp?t=AANOT&m=153152&d=2017-07-26"},{"theatre":{"id":"8498","name":"Regal Metropolitan Stadium 14"},"dateTime":"2017-07-26T11:50","quals":"Descriptive Video Services|Closed Captioned","barg":true,"ticketURI":"http://www.fandango.com/tms.asp?t=AALHE&m=153152&d=2017-07-26"},{"theatre":{"id":"8498","name":"Regal Metropolitan Stadium 14"},"dateTime":"2017-07-26T14:20","quals":"Descriptive Video Services|Closed Captioned","barg":true,"ticketURI":"http://www.fandango.com/tms.asp?t=AALHE&m=153152&d=2017-07-26"},{"theatre":{"id":"8498","name":"Regal Metropolitan Stadium 14"},"dateTime":"2017-07-26T16:50","quals":"Descriptive Video Services|Closed Captioned","barg":true,"ticketURI":"http://www.fandango.com/tms.asp?t=AALHE&m=153152&d=2017-07-26"},{"theatre":{"id":"8498","name":"Regal Metropolitan Stadium 14"},"dateTime":"2017-07-26T19:20","quals":"Descriptive Video Services|Closed Captioned","barg":false,"ticketURI":"http://www.fandango.com/tms.asp?t=AALHE&m=153152&d=2017-07-26"},{"theatre":{"id":"8498","name":"Regal Metropolitan Stadium 14"},"dateTime":"2017-07-26T21:45","quals":"Descriptive Video Services|Closed Captioned","barg":false,"ticketURI":"http://www.fandango.com/tms.asp?t=AALHE&m=153152&d=2017-07-26"},{"theatre":{"id":"9306","name":"Cinemark Southpark Meadows"},"dateTime":"2017-07-26T10:50","quals":"Reserved Seating|Closed Captioned|Lounger","barg":false,"ticketURI":"http://www.fandango.com/tms.asp?t=AAUIY&m=153152&d=2017-07-26"},{"theatre":{"id":"9306","name":"Cinemark Southpark Meadows"},"dateTime":"2017-07-26T14:00","quals":"Reserved Seating|Closed Captioned|Lounger","barg":false,"ticketURI":"http://www.fandango.com/tms.asp?t=AAUIY&m=153152&d=2017-07-26"},{"theatre":{"id":"9306","name":"Cinemark Southpark Meadows"},"dateTime":"2017-07-26T17:10","quals":"Reserved Seating|Closed Captioned|Lounger","barg":false,"ticketURI":"http://www.fandango.com/tms.asp?t=AAUIY&m=153152&d=2017-07-26"},{"theatre":{"id":"9306","name":"Cinemark Southpark Meadows"},"dateTime":"2017-07-26T19:40","quals":"Reserved Seating|Closed Captioned|Lounger","barg":false,"ticketURI":"http://www.fandango.com/tms.asp?t=AAUIY&m=153152&d=2017-07-26"},{"theatre":{"id":"9306","name":"Cinemark Southpark Meadows"},"dateTime":"2017-07-26T22:05","quals":"Reserved Seating|Closed Captioned|Lounger","barg":false,"ticketURI":"http://www.fandango.com/tms.asp?t=AAUIY&m=153152&d=2017-07-26"},{"theatre":{"id":"10569","name":"Alamo Drafthouse Slaughter Lane"},"dateTime":"2017-07-26T10:20","barg":false,"ticketURI":"http://www.fandango.com/tms.asp?t=AAWQE&m=153152&d=2017-07-26"},{"theatre":{"id":"10569","name":"Alamo Drafthouse Slaughter Lane"},"dateTime":"2017-07-26T13:00","barg":false,"ticketURI":"http://www.fandango.com/tms.asp?t=AAWQE&m=153152&d=2017-07-26"},{"theatre":{"id":"10569","name":"Alamo Drafthouse Slaughter Lane"},"dateTime":"2017-07-26T15:35","barg":false,"ticketURI":"http://www.fandango.com/tms.asp?t=AAWQE&m=153152&d=2017-07-26"},{"theatre":{"id":"10569","name":"Alamo Drafthouse Slaughter Lane"},"dateTime":"2017-07-26T18:15","barg":false,"ticketURI":"http://www.fandango.com/tms.asp?t=AAWQE&m=153152&d=2017-07-26"},{"theatre":{"id":"10569","name":"Alamo Drafthouse Slaughter Lane"},"dateTime":"2017-07-26T21:15","barg":false,"ticketURI":"http://www.fandango.com/tms.asp?t=AAWQE&m=153152&d=2017-07-26"}]},{"tmsId":"MV003615820000","rootId":"8696245","subType":"Feature Film","title":"Happy Feet Two","releaseYear":2011,"releaseDate":"2011-11-18","titleLang":"en","descriptionLang":"en","entityType":"Movie","genres":["Adventure","Musical","Comedy","Animated","Children"],"audience":"Children","longDescription":"Mumble (Elijah Wood) the penguin, now called the Master of Tap, has an unusual problem: Erik, his son, is reluctant to dance. Erik runs away from home and encounters the Mighty Sven (Hank Azaria) -- a penguin that can fly. Poor Mumble can\'t compete with Erik\'s unusual new role model. But, when the world is shaken by powerful forces, Erik gets a chance to see his father\'s true colors as Mumble gathers all creatures great and small to set things right again.","shortDescription":"The son of Mumble (Elijah Wood), the tap-dancing penguin, is afraid to dance.","topCast":["Elijah Wood","Robin Williams","Hank Azaria"],"directors":["George Miller"],"officialUrl":"http://pdl.warnerbros.com/wbol/us/movies/happyfeettwo/index.html","qualityRating":{"ratingsBody":"TMS","value":"2"},"ratings":[{"body":"Motion Picture Association of America","code":"PG"}],"advisories":["Adult Situations"],"runTime":"PT01H40M","animation":"Animated","preferredImage":{"width":"240","height":"360","uri":"assets/p8696245_v_v5_ak.jpg","category":"VOD Art","text":"yes","primary":"true"},"showtimes":[{"theatre":{"id":"8298","name":"Regal Westgate Stadium 11"},"dateTime":"2017-07-26T10:00","quals":"Descriptive Video Services|Closed Captioned","barg":false,"ticketURI":"http://www.fandango.com/tms.asp?t=AANOT&m=107377&d=2017-07-26"}]},{"tmsId":"MV002729890000","rootId":"7995627","subType":"Feature Film","title":"Cats & Dogs: The Revenge of Kitty Galore","releaseYear":2010,"releaseDate":"2010-07-30","titleLang":"en","descriptionLang":"en","entityType":"Movie","genres":["Adventure","Comedy","Children"],"audience":"Children","longDescription":"In the age-old battle between felines and canines, one rogue kitty is stepping up the fight. Kitty Galore, former operative for MEOWS, is executing a diabolical plan against her sworn enemies, the dogs, as well as her cat comrades. In order to save themselves and their humans, both species must unite in an unprecedented alliance to stop Kitty Galore from making the world her scratching post.","shortDescription":"Felines and canines join forces against a rogue cat who wants to make the world her scratching post.","topCast":["James Marsden","Nick Nolte","Christina Applegate"],"directors":["Brad Peyton"],"officialUrl":"http://catsanddogsmovie.warnerbros.com/","qualityRating":{"ratingsBody":"TMS","value":"1.5"},"ratings":[{"body":"Motion Picture Association of America","code":"PG"}],"advisories":["Adult Situations"],"runTime":"PT01H22M","preferredImage":{"width":"240","height":"360","uri":"assets/p7995627_v_v5_ae.jpg","category":"VOD Art","text":"yes","primary":"true"},"showtimes":[{"theatre":{"id":"8298","name":"Regal Westgate Stadium 11"},"dateTime":"2017-07-26T10:00","barg":false,"ticketURI":"http://www.fandango.com/tms.asp?t=AANOT&m=87984&d=2017-07-26"}]},{"tmsId":"MV009187970000","rootId":"13153578","subType":"Feature Film","title":"Dunkirk","releaseYear":2017,"releaseDate":"2017-07-21","titleLang":"en","descriptionLang":"en","entityType":"Movie","genres":["War","Historical drama"],"longDescription":"In May 1940, Germany advanced into France, trapping Allied troops on the beaches of Dunkirk. Under air and ground cover from British and French forces, troops were slowly and methodically evacuated from the beach using every serviceable naval and civilian vessel that could be found. At the end of this heroic mission, 330,000 French, British, Belgian and Dutch soldiers were safely evacuated.","shortDescription":"British forces embark on a mission to evacuate Allied troops from Dunkirk, France, in 1940.","topCast":["Fionn Whitehead","Tom Glynn-Carney","Jack Lowden"],"directors":["Christopher Nolan"],"officialUrl":"http://www.dunkirkmovie.com/","qualityRating":{"ratingsBody":"TMS","value":"3.5"},"ratings":[{"body":"Motion Picture Association of America","code":"PG-13"}],"advisories":["Adult Language","Adult Situations","Violence"],"runTime":"PT01H47M","preferredImage":{"width":"240","height":"360","caption":{"content":"Dunkirk (2017)","lang":"en"},"uri":"assets/p13153578_p_v5_ab.jpg","category":"Poster Art","text":"yes","primary":"true"},"showtimes":[{"theatre":{"id":"8298","name":"Regal Westgate Stadium 11"},"dateTime":"2017-07-26T10:00","quals":"Closed Captioned|Descriptive Video Services|No Passes","barg":true,"ticketURI":"http://www.fandango.com/tms.asp?t=AANOT&m=165038&d=2017-07-26"},{"theatre":{"id":"8298","name":"Regal Westgate Stadium 11"},"dateTime":"2017-07-26T10:55","quals":"Descriptive Video Services|No Passes|Closed Captioned","barg":true,"ticketURI":"http://www.fandango.com/tms.asp?t=AANOT&m=165038&d=2017-07-26"},{"theatre":{"id":"8298","name":"Regal Westgate Stadium 11"},"dateTime":"2017-07-26T12:15","quals":"Descriptive Video Services|No Passes|Closed Captioned","barg":true,"ticketURI":"http://www.fandango.com/tms.asp?t=AANOT&m=165038&d=2017-07-26"},{"theatre":{"id":"8298","name":"Regal Westgate Stadium 11"},"dateTime":"2017-07-26T14:15","quals":"Descriptive Video Services|No Passes|Closed Captioned","barg":true,"ticketURI":"http://www.fandango.com/tms.asp?t=AANOT&m=165038&d=2017-07-26"},{"theatre":{"id":"8298","name":"Regal Westgate Stadium 11"},"dateTime":"2017-07-26T15:30","quals":"Descriptive Video Services|No Passes|Closed Captioned","barg":true,"ticketURI":"http://www.fandango.com/tms.asp?t=AANOT&m=165038&d=2017-07-26"},{"theatre":{"id":"8298","name":"Regal Westgate Stadium 11"},"dateTime":"2017-07-26T16:30","quals":"Descriptive Video Services|No Passes|Closed Captioned","barg":true,"ticketURI":"http://www.fandango.com/tms.asp?t=AANOT&m=165038&d=2017-07-26"},{"theatre":{"id":"8298","name":"Regal Westgate Stadium 11"},"dateTime":"2017-07-26T18:00","quals":"Descriptive Video Services|No Passes|Closed Captioned","barg":false,"ticketURI":"http://www.fandango.com/tms.asp?t=AANOT&m=165038&d=2017-07-26"},{"theatre":{"id":"8298","name":"Regal Westgate Stadium 11"},"dateTime":"2017-07-26T19:50","quals":"Descriptive Video Services|No Passes|Closed Captioned","barg":false,"ticketURI":"http://www.fandango.com/tms.asp?t=AANOT&m=165038&d=2017-07-26"},{"theatre":{"id":"8298","name":"Regal Westgate Stadium 11"},"dateTime":"2017-07-26T21:30","quals":"Descriptive Video Services|No Passes|Closed Captioned","barg":false,"ticketURI":"http://www.fandango.com/tms.asp?t=AANOT&m=165038&d=2017-07-26"},{"theatre":{"id":"8298","name":"Regal Westgate Stadium 11"},"dateTime":"2017-07-26T22:20","quals":"Descriptive Video Services|No Passes|Closed Captioned","barg":false,"ticketURI":"http://www.fandango.com/tms.asp?t=AANOT&m=165038&d=2017-07-26"},{"theatre":{"id":"8498","name":"Regal Metropolitan Stadium 14"},"dateTime":"2017-07-26T12:00","quals":"Descriptive Video Services|No Passes|Closed Captioned","barg":true,"ticketURI":"http://www.fandango.com/tms.asp?t=AALHE&m=165038&d=2017-07-26"},{"theatre":{"id":"8498","name":"Regal Metropolitan Stadium 14"},"dateTime":"2017-07-26T13:00","quals":"Descriptive Video Services|No Passes|Closed Captioned","barg":true,"ticketURI":"http://www.fandango.com/tms.asp?t=AALHE&m=165038&d=2017-07-26"},{"theatre":{"id":"8498","name":"Regal Metropolitan Stadium 14"},"dateTime":"2017-07-26T16:00","quals":"Descriptive Video Services|No Passes|Closed Captioned","barg":true,"ticketURI":"http://www.fandango.com/tms.asp?t=AALHE&m=165038&d=2017-07-26"},{"theatre":{"id":"8498","name":"Regal Metropolitan Stadium 14"},"dateTime":"2017-07-26T18:50","quals":"Descriptive Video Services|No Passes|Closed Captioned","barg":false,"ticketURI":"http://www.fandango.com/tms.asp?t=AALHE&m=165038&d=2017-07-26"},{"theatre":{"id":"8498","name":"Regal Metropolitan Stadium 14"},"dateTime":"2017-07-26T21:40","quals":"Descriptive Video Services|No Passes|Closed Captioned","barg":false,"ticketURI":"http://www.fandango.com/tms.asp?t=AALHE&m=165038&d=2017-07-26"},{"theatre":{"id":"9306","name":"Cinemark Southpark Meadows"},"dateTime":"2017-07-26T09:55","quals":"Reserved Seating|Lounger|Closed Captioned","barg":false,"ticketURI":"http://www.fandango.com/tms.asp?t=AAUIY&m=165038&d=2017-07-26"},{"theatre":{"id":"9306","name":"Cinemark Southpark Meadows"},"dateTime":"2017-07-26T11:15","quals":"Reserved Seating|Lounger|Closed Captioned","barg":false,"ticketURI":"http://www.fandango.com/tms.asp?t=AAUIY&m=165038&d=2017-07-26"},{"theatre":{"id":"9306","name":"Cinemark Southpark Meadows"},"dateTime":"2017-07-26T12:50","quals":"Reserved Seating|Lounger|Closed Captioned","barg":false,"ticketURI":"http://www.fandango.com/tms.asp?t=AAUIY&m=165038&d=2017-07-26"},{"theatre":{"id":"9306","name":"Cinemark Southpark Meadows"},"dateTime":"2017-07-26T14:10","quals":"Reserved Seating|Lounger|Closed Captioned","barg":false,"ticketURI":"http://www.fandango.com/tms.asp?t=AAUIY&m=165038&d=2017-07-26"},{"theatre":{"id":"9306","name":"Cinemark Southpark Meadows"},"dateTime":"2017-07-26T15:40","quals":"Reserved Seating|Lounger|Closed Captioned","barg":false,"ticketURI":"http://www.fandango.com/tms.asp?t=AAUIY&m=165038&d=2017-07-26"},{"theatre":{"id":"9306","name":"Cinemark Southpark Meadows"},"dateTime":"2017-07-26T16:50","quals":"Reserved Seating|Lounger|Closed Captioned","barg":false,"ticketURI":"http://www.fandango.com/tms.asp?t=AAUIY&m=165038&d=2017-07-26"},{"theatre":{"id":"9306","name":"Cinemark Southpark Meadows"},"dateTime":"2017-07-26T18:30","quals":"Reserved Seating|Lounger|Closed Captioned","barg":false,"ticketURI":"http://www.fandango.com/tms.asp?t=AAUIY&m=165038&d=2017-07-26"},{"theatre":{"id":"9306","name":"Cinemark Southpark Meadows"},"dateTime":"2017-07-26T20:00","quals":"Reserved Seating|Lounger|Closed Captioned","barg":false,"ticketURI":"http://www.fandango.com/tms.asp?t=AAUIY&m=165038&d=2017-07-26"},{"theatre":{"id":"9306","name":"Cinemark Southpark Meadows"},"dateTime":"2017-07-26T21:10","quals":"Reserved Seating|Lounger|Closed Captioned","barg":false,"ticketURI":"http://www.fandango.com/tms.asp?t=AAUIY&m=165038&d=2017-07-26"},{"theatre":{"id":"9306","name":"Cinemark Southpark Meadows"},"dateTime":"2017-07-26T22:35","quals":"Reserved Seating|Lounger|Closed Captioned","barg":false,"ticketURI":"http://www.fandango.com/tms.asp?t=AAUIY&m=165038&d=2017-07-26"},{"theatre":{"id":"5084","name":"Alamo Drafthouse South Lamar"},"dateTime":"2017-07-26T13:20","barg":false,"ticketURI":"http://www.fandango.com/tms.asp?t=AATHS&m=165038&d=2017-07-26"},{"theatre":{"id":"5084","name":"Alamo Drafthouse South Lamar"},"dateTime":"2017-07-26T16:10","barg":false,"ticketURI":"http://www.fandango.com/tms.asp?t=AATHS&m=165038&d=2017-07-26"},{"theatre":{"id":"5084","name":"Alamo Drafthouse South Lamar"},"dateTime":"2017-07-26T19:00","barg":false,"ticketURI":"http://www.fandango.com/tms.asp?t=AATHS&m=165038&d=2017-07-26"},{"theatre":{"id":"5084","name":"Alamo Drafthouse South Lamar"},"dateTime":"2017-07-26T21:50","barg":false,"ticketURI":"http://www.fandango.com/tms.asp?t=AATHS&m=165038&d=2017-07-26"},{"theatre":{"id":"10569","name":"Alamo Drafthouse Slaughter Lane"},"dateTime":"2017-07-26T10:30","barg":false,"ticketURI":"http://www.fandango.com/tms.asp?t=AAWQE&m=165038&d=2017-07-26"},{"theatre":{"id":"10569","name":"Alamo Drafthouse Slaughter Lane"},"dateTime":"2017-07-26T12:50","barg":false,"ticketURI":"http://www.fandango.com/tms.asp?t=AAWQE&m=165038&d=2017-07-26"},{"theatre":{"id":"10569","name":"Alamo Drafthouse Slaughter Lane"},"dateTime":"2017-07-26T15:40","barg":false,"ticketURI":"http://www.fandango.com/tms.asp?t=AAWQE&m=165038&d=2017-07-26"},{"theatre":{"id":"10569","name":"Alamo Drafthouse Slaughter Lane"},"dateTime":"2017-07-26T18:50","barg":false,"ticketURI":"http://www.fandango.com/tms.asp?t=AAWQE&m=165038&d=2017-07-26"},{"theatre":{"id":"10569","name":"Alamo Drafthouse Slaughter Lane"},"dateTime":"2017-07-26T21:55","barg":false,"ticketURI":"http://www.fandango.com/tms.asp?t=AAWQE&m=165038&d=2017-07-26"}]},{"tmsId":"MV009818230000","rootId":"13831327","subType":"Feature Film","title":"The Big Sick","releaseYear":2017,"releaseDate":"2017-01-20","titleLang":"en","descriptionLang":"en","entityType":"Movie","genres":["Romantic comedy"],"longDescription":"Kumail is a Pakistani comic who meets an American graduate student named Emily at one of his stand-up shows. As their relationship blossoms, he soon becomes worried about what his traditional Muslim parents will think of her. When Emily suddenly comes down with an illness that leaves her in a coma, Kumail finds himself developing a bond with her deeply concerned mother and father.","shortDescription":"A Pakistani stand-up comic develops a bond with the parents of his comatose American girlfriend.","topCast":["Kumail Nanjiani","Zoe Kazan","Holly Hunter"],"directors":["Michael Showalter"],"officialUrl":"https://www.thebigsickmovie.com/","qualityRating":{"ratingsBody":"TMS","value":"3.5"},"ratings":[{"body":"Motion Picture Association of America","code":"R"}],"advisories":["Adult Language","Adult Situations"],"runTime":"PT02H00M","preferredImage":{"width":"240","height":"360","uri":"assets/p13831327_v_v5_aa.jpg","category":"VOD Art","text":"yes","primary":"true"},"showtimes":[{"theatre":{"id":"8298","name":"Regal Westgate Stadium 11"},"dateTime":"2017-07-26T10:10","quals":"Descriptive Video Services|Closed Captioned","barg":true,"ticketURI":"http://www.fandango.com/tms.asp?t=AANOT&m=171221&d=2017-07-26"},{"theatre":{"id":"8298","name":"Regal Westgate Stadium 11"},"dateTime":"2017-07-26T16:00","quals":"Descriptive Video Services|Closed Captioned","barg":true,"ticketURI":"http://www.fandango.com/tms.asp?t=AANOT&m=171221&d=2017-07-26"},{"theatre":{"id":"8298","name":"Regal Westgate Stadium 11"},"dateTime":"2017-07-26T18:45","quals":"Descriptive Video Services|Closed Captioned","barg":false,"ticketURI":"http://www.fandango.com/tms.asp?t=AANOT&m=171221&d=2017-07-26"},{"theatre":{"id":"8298","name":"Regal Westgate Stadium 11"},"dateTime":"2017-07-26T21:30","quals":"Descriptive Video Services|Closed Captioned","barg":false,"ticketURI":"http://www.fandango.com/tms.asp?t=AANOT&m=171221&d=2017-07-26"},{"theatre":{"id":"8498","name":"Regal Metropolitan Stadium 14"},"dateTime":"2017-07-26T12:10","quals":"Descriptive Video Services|Closed Captioned","barg":true,"ticketURI":"http://www.fandango.com/tms.asp?t=AALHE&m=171221&d=2017-07-26"},{"theatre":{"id":"8498","name":"Regal Metropolitan Stadium 14"},"dateTime":"2017-07-26T15:20","quals":"Descriptive Video Services|Closed Captioned","barg":true,"ticketURI":"http://www.fandango.com/tms.asp?t=AALHE&m=171221&d=2017-07-26"},{"theatre":{"id":"8498","name":"Regal Metropolitan Stadium 14"},"dateTime":"2017-07-26T18:15","quals":"Descriptive Video Services|Closed Captioned","barg":false,"ticketURI":"http://www.fandango.com/tms.asp?t=AALHE&m=171221&d=2017-07-26"},{"theatre":{"id":"8498","name":"Regal Metropolitan Stadium 14"},"dateTime":"2017-07-26T21:30","quals":"Descriptive Video Services|Closed Captioned","barg":false,"ticketURI":"http://www.fandango.com/tms.asp?t=AALHE&m=171221&d=2017-07-26"},{"theatre":{"id":"9306","name":"Cinemark Southpark Meadows"},"dateTime":"2017-07-26T10:15","quals":"Reserved Seating|Closed Captioned","barg":false,"ticketURI":"http://www.fandango.com/tms.asp?t=AAUIY&m=171221&d=2017-07-26"},{"theatre":{"id":"9306","name":"Cinemark Southpark Meadows"},"dateTime":"2017-07-26T13:30","quals":"Reserved Seating|Closed Captioned","barg":false,"ticketURI":"http://www.fandango.com/tms.asp?t=AAUIY&m=171221&d=2017-07-26"},{"theatre":{"id":"9306","name":"Cinemark Southpark Meadows"},"dateTime":"2017-07-26T16:20","quals":"Reserved Seating|Closed Captioned","barg":false,"ticketURI":"http://www.fandango.com/tms.asp?t=AAUIY&m=171221&d=2017-07-26"},{"theatre":{"id":"9306","name":"Cinemark Southpark Meadows"},"dateTime":"2017-07-26T19:15","quals":"Reserved Seating|Closed Captioned","barg":false,"ticketURI":"http://www.fandango.com/tms.asp?t=AAUIY&m=171221&d=2017-07-26"},{"theatre":{"id":"9306","name":"Cinemark Southpark Meadows"},"dateTime":"2017-07-26T22:15","quals":"Reserved Seating|Closed Captioned","barg":false,"ticketURI":"http://www.fandango.com/tms.asp?t=AAUIY&m=171221&d=2017-07-26"},{"theatre":{"id":"5084","name":"Alamo Drafthouse South Lamar"},"dateTime":"2017-07-26T13:30","barg":false,"ticketURI":"http://www.fandango.com/tms.asp?t=AATHS&m=171221&d=2017-07-26"},{"theatre":{"id":"5084","name":"Alamo Drafthouse South Lamar"},"dateTime":"2017-07-26T16:30","barg":false,"ticketURI":"http://www.fandango.com/tms.asp?t=AATHS&m=171221&d=2017-07-26"},{"theatre":{"id":"5084","name":"Alamo Drafthouse South Lamar"},"dateTime":"2017-07-26T18:45","barg":false,"ticketURI":"http://www.fandango.com/tms.asp?t=AATHS&m=171221&d=2017-07-26"},{"theatre":{"id":"5084","name":"Alamo Drafthouse South Lamar"},"dateTime":"2017-07-26T21:20","barg":false,"ticketURI":"http://www.fandango.com/tms.asp?t=AATHS&m=171221&d=2017-07-26"},{"theatre":{"id":"10569","name":"Alamo Drafthouse Slaughter Lane"},"dateTime":"2017-07-26T11:30","barg":false,"ticketURI":"http://www.fandango.com/tms.asp?t=AAWQE&m=171221&d=2017-07-26"},{"theatre":{"id":"10569","name":"Alamo Drafthouse Slaughter Lane"},"dateTime":"2017-07-26T13:20","barg":false,"ticketURI":"http://www.fandango.com/tms.asp?t=AAWQE&m=171221&d=2017-07-26"},{"theatre":{"id":"10569","name":"Alamo Drafthouse Slaughter Lane"},"dateTime":"2017-07-26T16:30","barg":false,"ticketURI":"http://www.fandango.com/tms.asp?t=AAWQE&m=171221&d=2017-07-26"},{"theatre":{"id":"10569","name":"Alamo Drafthouse Slaughter Lane"},"dateTime":"2017-07-26T18:25","barg":false,"ticketURI":"http://www.fandango.com/tms.asp?t=AAWQE&m=171221&d=2017-07-26"},{"theatre":{"id":"10569","name":"Alamo Drafthouse Slaughter Lane"},"dateTime":"2017-07-26T19:55","barg":false,"ticketURI":"http://www.fandango.com/tms.asp?t=AAWQE&m=171221&d=2017-07-26"},{"theatre":{"id":"10569","name":"Alamo Drafthouse Slaughter Lane"},"dateTime":"2017-07-26T21:35","barg":false,"ticketURI":"http://www.fandango.com/tms.asp?t=AAWQE&m=171221&d=2017-07-26"}]},{"tmsId":"MV008806610000","rootId":"12798844","subType":"Feature Film","title":"Spider-Man: Homecoming","releaseYear":2017,"releaseDate":"2017-07-07","titleLang":"en","descriptionLang":"en","entityType":"Movie","genres":["Action","Adventure","Fantasy","Comedy"],"longDescription":"Thrilled by his experience with the Avengers, young Peter Parker returns home to live with his Aunt May. Under the watchful eye of mentor Tony Stark, Parker starts to embrace his newfound identity as Spider-Man. He also tries to return to his normal daily routine -- distracted by thoughts of proving himself to be more than just a friendly neighborhood superhero. Peter must soon put his powers to the test when the evil Vulture emerges to threaten everything that he holds dear.","shortDescription":"High school student Peter Parker embraces his new identity as Spider-Man to battle the evil Vulture.","topCast":["Tom Holland","Michael Keaton","Robert Downey Jr."],"directors":["Jon Watts"],"officialUrl":"http://www.spidermanhomecoming.com/","qualityRating":{"ratingsBody":"TMS","value":"3"},"ratings":[{"body":"Motion Picture Association of America","code":"PG-13"}],"advisories":["Adult Language","Adult Situations","Violence"],"runTime":"PT02H13M","preferredImage":{"width":"240","height":"360","caption":{"content":"Spider-Man: Homecoming -- The IMAX 2D Experience (2017)","lang":"en"},"uri":"assets/p12798844_p_v5_ab.jpg","category":"Poster Art","text":"yes","primary":"true"},"showtimes":[{"theatre":{"id":"8298","name":"Regal Westgate Stadium 11"},"dateTime":"2017-07-26T10:20","quals":"Descriptive Video Services|Closed Captioned","barg":true,"ticketURI":"http://www.fandango.com/tms.asp?t=AANOT&m=161696&d=2017-07-26"},{"theatre":{"id":"8298","name":"Regal Westgate Stadium 11"},"dateTime":"2017-07-26T12:15","quals":"Descriptive Video Services|Closed Captioned","barg":true,"ticketURI":"http://www.fandango.com/tms.asp?t=AANOT&m=161696&d=2017-07-26"},{"theatre":{"id":"8298","name":"Regal Westgate Stadium 11"},"dateTime":"2017-07-26T13:20","quals":"Descriptive Video Services|Closed Captioned","barg":true,"ticketURI":"http://www.fandango.com/tms.asp?t=AANOT&m=161696&d=2017-07-26"},{"theatre":{"id":"8298","name":"Regal Westgate Stadium 11"},"dateTime":"2017-07-26T15:10","quals":"Descriptive Video Services|Closed Captioned","barg":true,"ticketURI":"http://www.fandango.com/tms.asp?t=AANOT&m=161696&d=2017-07-26"},{"theatre":{"id":"8298","name":"Regal Westgate Stadium 11"},"dateTime":"2017-07-26T16:15","quals":"Descriptive Video Services|Closed Captioned","barg":true,"ticketURI":"http://www.fandango.com/tms.asp?t=AANOT&m=161696&d=2017-07-26"},{"theatre":{"id":"8298","name":"Regal Westgate Stadium 11"},"dateTime":"2017-07-26T18:05","quals":"Descriptive Video Services|Closed Captioned","barg":false,"ticketURI":"http://www.fandango.com/tms.asp?t=AANOT&m=161696&d=2017-07-26"},{"theatre":{"id":"8298","name":"Regal Westgate Stadium 11"},"dateTime":"2017-07-26T19:10","quals":"Descriptive Video Services|Closed Captioned","barg":false,"ticketURI":"http://www.fandango.com/tms.asp?t=AANOT&m=161696&d=2017-07-26"},{"theatre":{"id":"8298","name":"Regal Westgate Stadium 11"},"dateTime":"2017-07-26T21:00","quals":"Descriptive Video Services|Closed Captioned","barg":false,"ticketURI":"http://www.fandango.com/tms.asp?t=AANOT&m=161696&d=2017-07-26"},{"theatre":{"id":"8298","name":"Regal Westgate Stadium 11"},"dateTime":"2017-07-26T22:10","quals":"Descriptive Video Services|Closed Captioned","barg":false,"ticketURI":"http://www.fandango.com/tms.asp?t=AANOT&m=161696&d=2017-07-26"},{"theatre":{"id":"8498","name":"Regal Metropolitan Stadium 14"},"dateTime":"2017-07-26T14:10","quals":"Descriptive Video Services|Closed Captioned","barg":true,"ticketURI":"http://www.fandango.com/tms.asp?t=AALHE&m=161696&d=2017-07-26"},{"theatre":{"id":"8498","name":"Regal Metropolitan Stadium 14"},"dateTime":"2017-07-26T17:20","quals":"Descriptive Video Services|Closed Captioned","barg":true,"ticketURI":"http://www.fandango.com/tms.asp?t=AALHE&m=161696&d=2017-07-26"},{"theatre":{"id":"8498","name":"Regal Metropolitan Stadium 14"},"dateTime":"2017-07-26T20:30","quals":"Descriptive Video Services|Closed Captioned","barg":false,"ticketURI":"http://www.fandango.com/tms.asp?t=AALHE&m=161696&d=2017-07-26"},{"theatre":{"id":"9306","name":"Cinemark Southpark Meadows"},"dateTime":"2017-07-26T09:50","quals":"Reserved Seating|Closed Captioned|Lounger","barg":false,"ticketURI":"http://www.fandango.com/tms.asp?t=AAUIY&m=161696&d=2017-07-26"},{"theatre":{"id":"9306","name":"Cinemark Southpark Meadows"},"dateTime":"2017-07-26T11:00","quals":"Reserved Seating|Closed Captioned|Lounger","barg":false,"ticketURI":"http://www.fandango.com/tms.asp?t=AAUIY&m=161696&d=2017-07-26"},{"theatre":{"id":"9306","name":"Cinemark Southpark Meadows"},"dateTime":"2017-07-26T13:00","quals":"Reserved Seating|Closed Captioned|Lounger","barg":false,"ticketURI":"http://www.fandango.com/tms.asp?t=AAUIY&m=161696&d=2017-07-26"},{"theatre":{"id":"9306","name":"Cinemark Southpark Meadows"},"dateTime":"2017-07-26T14:20","quals":"Reserved Seating|Closed Captioned|Lounger","barg":false,"ticketURI":"http://www.fandango.com/tms.asp?t=AAUIY&m=161696&d=2017-07-26"},{"theatre":{"id":"9306","name":"Cinemark Southpark Meadows"},"dateTime":"2017-07-26T16:10","quals":"Reserved Seating|Closed Captioned|Lounger","barg":false,"ticketURI":"http://www.fandango.com/tms.asp?t=AAUIY&m=161696&d=2017-07-26"},{"theatre":{"id":"9306","name":"Cinemark Southpark Meadows"},"dateTime":"2017-07-26T17:40","quals":"Reserved Seating|Closed Captioned|Lounger","barg":false,"ticketURI":"http://www.fandango.com/tms.asp?t=AAUIY&m=161696&d=2017-07-26"},{"theatre":{"id":"9306","name":"Cinemark Southpark Meadows"},"dateTime":"2017-07-26T19:20","quals":"Reserved Seating|Closed Captioned|Lounger","barg":false,"ticketURI":"http://www.fandango.com/tms.asp?t=AAUIY&m=161696&d=2017-07-26"},{"theatre":{"id":"9306","name":"Cinemark Southpark Meadows"},"dateTime":"2017-07-26T21:00","quals":"Reserved Seating|Closed Captioned|Lounger","barg":false,"ticketURI":"http://www.fandango.com/tms.asp?t=AAUIY&m=161696&d=2017-07-26"},{"theatre":{"id":"5084","name":"Alamo Drafthouse South Lamar"},"dateTime":"2017-07-26T12:15","barg":false,"ticketURI":"http://www.fandango.com/tms.asp?t=AATHS&m=161696&d=2017-07-26"},{"theatre":{"id":"5084","name":"Alamo Drafthouse South Lamar"},"dateTime":"2017-07-26T15:30","barg":false,"ticketURI":"http://www.fandango.com/tms.asp?t=AATHS&m=161696&d=2017-07-26"},{"theatre":{"id":"5084","name":"Alamo Drafthouse South Lamar"},"dateTime":"2017-07-26T18:00","barg":false,"ticketURI":"http://www.fandango.com/tms.asp?t=AATHS&m=161696&d=2017-07-26"},{"theatre":{"id":"5084","name":"Alamo Drafthouse South Lamar"},"dateTime":"2017-07-26T21:45","barg":false,"ticketURI":"http://www.fandango.com/tms.asp?t=AATHS&m=161696&d=2017-07-26"},{"theatre":{"id":"10569","name":"Alamo Drafthouse Slaughter Lane"},"dateTime":"2017-07-26T12:25","barg":false,"ticketURI":"http://www.fandango.com/tms.asp?t=AAWQE&m=161696&d=2017-07-26"},{"theatre":{"id":"10569","name":"Alamo Drafthouse Slaughter Lane"},"dateTime":"2017-07-26T14:40","barg":false,"ticketURI":"http://www.fandango.com/tms.asp?t=AAWQE&m=161696&d=2017-07-26"},{"theatre":{"id":"10569","name":"Alamo Drafthouse Slaughter Lane"},"dateTime":"2017-07-26T16:00","barg":false,"ticketURI":"http://www.fandango.com/tms.asp?t=AAWQE&m=161696&d=2017-07-26"},{"theatre":{"id":"10569","name":"Alamo Drafthouse Slaughter Lane"},"dateTime":"2017-07-26T18:00","barg":false,"ticketURI":"http://www.fandango.com/tms.asp?t=AAWQE&m=161696&d=2017-07-26"},{"theatre":{"id":"10569","name":"Alamo Drafthouse Slaughter Lane"},"dateTime":"2017-07-26T21:15","barg":false,"ticketURI":"http://www.fandango.com/tms.asp?t=AAWQE&m=161696&d=2017-07-26"},{"theatre":{"id":"10569","name":"Alamo Drafthouse Slaughter Lane"},"dateTime":"2017-07-26T22:55","barg":false,"ticketURI":"http://www.fandango.com/tms.asp?t=AAWQE&m=161696&d=2017-07-26"}]},{"tmsId":"MV008029970000","rootId":"12126545","subType":"Feature Film","title":"War for the Planet of the Apes","releaseYear":2017,"releaseDate":"2017-07-14","titleLang":"en","descriptionLang":"en","entityType":"Movie","genres":["Science fiction","Action","Adventure"],"longDescription":"Caesar (Andy Serkis) and his apes are forced into a deadly conflict with an army of humans led by a ruthless colonel (Woody Harrelson). After the apes suffer unimaginable losses, Caesar wrestles with his darker instincts and begins his own mythic quest to avenge his kind. As the journey finally brings them face to face, Caesar and the colonel are pitted against each other in an epic battle that will determine the fate of both of their species and the future of the planet.","shortDescription":"A colonel leads his troops in a deadly battle against Caesar and his army of intelligent apes.","topCast":["Andy Serkis","Woody Harrelson","Steve Zahn"],"directors":["Matt Reeves"],"officialUrl":"http://www.foxmovies.com/movies/war-for-the-planet-of-the-apes","qualityRating":{"ratingsBody":"TMS","value":"3.5"},"ratings":[{"body":"Motion Picture Association of America","code":"PG-13"}],"advisories":["Adult Situations","Violence"],"runTime":"PT02H22M","preferredImage":{"width":"240","height":"360","uri":"assets/p12126545_v_v5_aa.jpg","category":"VOD Art","text":"yes","primary":"true"},"showtimes":[{"theatre":{"id":"8298","name":"Regal Westgate Stadium 11"},"dateTime":"2017-07-26T10:25","quals":"Descriptive Video Services|No Passes|Closed Captioned","barg":true,"ticketURI":"http://www.fandango.com/tms.asp?t=AANOT&m=154458&d=2017-07-26"},{"theatre":{"id":"8298","name":"Regal Westgate Stadium 11"},"dateTime":"2017-07-26T12:55","quals":"Descriptive Video Services|No Passes|Closed Captioned","barg":true,"ticketURI":"http://www.fandango.com/tms.asp?t=AANOT&m=154458&d=2017-07-26"},{"theatre":{"id":"8298","name":"Regal Westgate Stadium 11"},"dateTime":"2017-07-26T13:25","quals":"Descriptive Video Services|No Passes|Closed Captioned","barg":true,"ticketURI":"http://www.fandango.com/tms.asp?t=AANOT&m=154458&d=2017-07-26"},{"theatre":{"id":"8298","name":"Regal Westgate Stadium 11"},"dateTime":"2017-07-26T14:45","quals":"Descriptive Video Services|No Passes|Closed Captioned","barg":true,"ticketURI":"http://www.fandango.com/tms.asp?t=AANOT&m=154458&d=2017-07-26"},{"theatre":{"id":"8298","name":"Regal Westgate Stadium 11"},"dateTime":"2017-07-26T16:45","quals":"Descriptive Video Services|No Passes|Closed Captioned","barg":true,"ticketURI":"http://www.fandango.com/tms.asp?t=AANOT&m=154458&d=2017-07-26"},{"theatre":{"id":"8298","name":"Regal Westgate Stadium 11"},"dateTime":"2017-07-26T18:00","quals":"Descriptive Video Services|No Passes|Closed Captioned","barg":false,"ticketURI":"http://www.fandango.com/tms.asp?t=AANOT&m=154458&d=2017-07-26"},{"theatre":{"id":"8298","name":"Regal Westgate Stadium 11"},"dateTime":"2017-07-26T19:00","quals":"Descriptive Video Services|No Passes|Closed Captioned","barg":false,"ticketURI":"http://www.fandango.com/tms.asp?t=AANOT&m=154458&d=2017-07-26"},{"theatre":{"id":"8298","name":"Regal Westgate Stadium 11"},"dateTime":"2017-07-26T21:10","quals":"Descriptive Video Services|No Passes|Closed Captioned","barg":false,"ticketURI":"http://www.fandango.com/tms.asp?t=AANOT&m=154458&d=2017-07-26"},{"theatre":{"id":"8298","name":"Regal Westgate Stadium 11"},"dateTime":"2017-07-26T22:05","quals":"Descriptive Video Services|No Passes|Closed Captioned","barg":false,"ticketURI":"http://www.fandango.com/tms.asp?t=AANOT&m=154458&d=2017-07-26"},{"theatre":{"id":"8498","name":"Regal Metropolitan Stadium 14"},"dateTime":"2017-07-26T11:50","quals":"Descriptive Video Services|No Passes|Closed Captioned","barg":true,"ticketURI":"http://www.fandango.com/tms.asp?t=AALHE&m=154458&d=2017-07-26"},{"theatre":{"id":"8498","name":"Regal Metropolitan Stadium 14"},"dateTime":"2017-07-26T15:10","quals":"Descriptive Video Services|No Passes|Closed Captioned","barg":true,"ticketURI":"http://www.fandango.com/tms.asp?t=AALHE&m=154458&d=2017-07-26"},{"theatre":{"id":"8498","name":"Regal Metropolitan Stadium 14"},"dateTime":"2017-07-26T18:30","quals":"Descriptive Video Services|No Passes|Closed Captioned","barg":false,"ticketURI":"http://www.fandango.com/tms.asp?t=AALHE&m=154458&d=2017-07-26"},{"theatre":{"id":"8498","name":"Regal Metropolitan Stadium 14"},"dateTime":"2017-07-26T21:50","quals":"Descriptive Video Services|No Passes|Closed Captioned","barg":false,"ticketURI":"http://www.fandango.com/tms.asp?t=AALHE&m=154458&d=2017-07-26"},{"theatre":{"id":"9306","name":"Cinemark Southpark Meadows"},"dateTime":"2017-07-26T10:00","quals":"Reserved Seating|Closed Captioned|Lounger","barg":false,"ticketURI":"http://www.fandango.com/tms.asp?t=AAUIY&m=154458&d=2017-07-26"},{"theatre":{"id":"9306","name":"Cinemark Southpark Meadows"},"dateTime":"2017-07-26T13:15","quals":"Reserved Seating|Closed Captioned|Lounger","barg":false,"ticketURI":"http://www.fandango.com/tms.asp?t=AAUIY&m=154458&d=2017-07-26"},{"theatre":{"id":"9306","name":"Cinemark Southpark Meadows"},"dateTime":"2017-07-26T16:30","quals":"Reserved Seating|Closed Captioned|Lounger","barg":false,"ticketURI":"http://www.fandango.com/tms.asp?t=AAUIY&m=154458&d=2017-07-26"},{"theatre":{"id":"9306","name":"Cinemark Southpark Meadows"},"dateTime":"2017-07-26T18:40","quals":"Reserved Seating|Closed Captioned|Lounger","barg":false,"ticketURI":"http://www.fandango.com/tms.asp?t=AAUIY&m=154458&d=2017-07-26"},{"theatre":{"id":"9306","name":"Cinemark Southpark Meadows"},"dateTime":"2017-07-26T20:15","quals":"Reserved Seating|Closed Captioned|Lounger","barg":false,"ticketURI":"http://www.fandango.com/tms.asp?t=AAUIY&m=154458&d=2017-07-26"},{"theatre":{"id":"5084","name":"Alamo Drafthouse South Lamar"},"dateTime":"2017-07-26T12:25","barg":false,"ticketURI":"http://www.fandango.com/tms.asp?t=AATHS&m=154458&d=2017-07-26"},{"theatre":{"id":"5084","name":"Alamo Drafthouse South Lamar"},"dateTime":"2017-07-26T14:10","barg":false,"ticketURI":"http://www.fandango.com/tms.asp?t=AATHS&m=154458&d=2017-07-26"},{"theatre":{"id":"5084","name":"Alamo Drafthouse South Lamar"},"dateTime":"2017-07-26T18:10","barg":false,"ticketURI":"http://www.fandango.com/tms.asp?t=AATHS&m=154458&d=2017-07-26"},{"theatre":{"id":"5084","name":"Alamo Drafthouse South Lamar"},"dateTime":"2017-07-26T21:50","barg":false,"ticketURI":"http://www.fandango.com/tms.asp?t=AATHS&m=154458&d=2017-07-26"},{"theatre":{"id":"10569","name":"Alamo Drafthouse Slaughter Lane"},"dateTime":"2017-07-26T11:55","barg":false,"ticketURI":"http://www.fandango.com/tms.asp?t=AAWQE&m=154458&d=2017-07-26"},{"theatre":{"id":"10569","name":"Alamo Drafthouse Slaughter Lane"},"dateTime":"2017-07-26T15:20","barg":false,"ticketURI":"http://www.fandango.com/tms.asp?t=AAWQE&m=154458&d=2017-07-26"},{"theatre":{"id":"10569","name":"Alamo Drafthouse Slaughter Lane"},"dateTime":"2017-07-26T19:15","barg":false,"ticketURI":"http://www.fandango.com/tms.asp?t=AAWQE&m=154458&d=2017-07-26"},{"theatre":{"id":"10569","name":"Alamo Drafthouse Slaughter Lane"},"dateTime":"2017-07-26T22:35","barg":false,"ticketURI":"http://www.fandango.com/tms.asp?t=AAWQE&m=154458&d=2017-07-26"}]},{"tmsId":"MV009214500000","rootId":"13175495","subType":"Feature Film","title":"Girls Trip","releaseYear":2017,"releaseDate":"2017-07-21","titleLang":"en","descriptionLang":"en","entityType":"Movie","genres":["Comedy"],"longDescription":"Best friends Ryan, Sasha, Lisa and Dina are in for the adventure of a lifetime when they travel to New Orleans for the annual Essence Festival. Along the way, they rekindle their sisterhood and rediscover their wild side by doing enough dancing, drinking, brawling and romancing to make the Big Easy blush.","shortDescription":"Four lifelong friends unleash their wild side at the annual Essence Festival in New Orleans.","topCast":["Regina Hall","Queen Latifah","Jada Pinkett Smith"],"directors":["Malcolm D. Lee"],"officialUrl":"http://www.girlstripmovie.com/","ratings":[{"body":"Motion Picture Association of America","code":"R"}],"advisories":["Adult Language","Adult Situations","Nudity","Strong Sexual Content"],"runTime":"PT02H02M","preferredImage":{"width":"240","height":"360","caption":{"content":"Girls Trip (2017)","lang":"en"},"uri":"assets/p13175495_p_v5_aa.jpg","category":"Poster Art","text":"yes","primary":"true"},"showtimes":[{"theatre":{"id":"8298","name":"Regal Westgate Stadium 11"},"dateTime":"2017-07-26T10:45","quals":"Descriptive Video Services|Closed Captioned","barg":true,"ticketURI":"http://www.fandango.com/tms.asp?t=AANOT&m=165269&d=2017-07-26"},{"theatre":{"id":"8298","name":"Regal Westgate Stadium 11"},"dateTime":"2017-07-26T13:30","quals":"Descriptive Video Services|Closed Captioned","barg":true,"ticketURI":"http://www.fandango.com/tms.asp?t=AANOT&m=165269&d=2017-07-26"},{"theatre":{"id":"8298","name":"Regal Westgate Stadium 11"},"dateTime":"2017-07-26T16:15","quals":"Closed Captioned|Descriptive Video Services","barg":true,"ticketURI":"http://www.fandango.com/tms.asp?t=AANOT&m=165269&d=2017-07-26"},{"theatre":{"id":"8298","name":"Regal Westgate Stadium 11"},"dateTime":"2017-07-26T19:00","quals":"Descriptive Video Services|Closed Captioned","barg":false,"ticketURI":"http://www.fandango.com/tms.asp?t=AANOT&m=165269&d=2017-07-26"},{"theatre":{"id":"8298","name":"Regal Westgate Stadium 11"},"dateTime":"2017-07-26T21:45","quals":"Descriptive Video Services|Closed Captioned","barg":false,"ticketURI":"http://www.fandango.com/tms.asp?t=AANOT&m=165269&d=2017-07-26"},{"theatre":{"id":"8498","name":"Regal Metropolitan Stadium 14"},"dateTime":"2017-07-26T11:50","quals":"Descriptive Video Services|Closed Captioned","barg":true,"ticketURI":"http://www.fandango.com/tms.asp?t=AALHE&m=165269&d=2017-07-26"},{"theatre":{"id":"8498","name":"Regal Metropolitan Stadium 14"},"dateTime":"2017-07-26T13:30","quals":"Descriptive Video Services|Closed Captioned","barg":true,"ticketURI":"http://www.fandango.com/tms.asp?t=AALHE&m=165269&d=2017-07-26"},{"theatre":{"id":"8498","name":"Regal Metropolitan Stadium 14"},"dateTime":"2017-07-26T16:30","quals":"Descriptive Video Services|Closed Captioned","barg":true,"ticketURI":"http://www.fandango.com/tms.asp?t=AALHE&m=165269&d=2017-07-26"},{"theatre":{"id":"8498","name":"Regal Metropolitan Stadium 14"},"dateTime":"2017-07-26T19:30","quals":"Descriptive Video Services|Closed Captioned","barg":false,"ticketURI":"http://www.fandango.com/tms.asp?t=AALHE&m=165269&d=2017-07-26"},{"theatre":{"id":"8498","name":"Regal Metropolitan Stadium 14"},"dateTime":"2017-07-26T22:35","quals":"Descriptive Video Services|Closed Captioned","barg":false,"ticketURI":"http://www.fandango.com/tms.asp?t=AALHE&m=165269&d=2017-07-26"},{"theatre":{"id":"9306","name":"Cinemark Southpark Meadows"},"dateTime":"2017-07-26T10:10","quals":"Reserved Seating|Lounger|Closed Captioned","barg":false,"ticketURI":"http://www.fandango.com/tms.asp?t=AAUIY&m=165269&d=2017-07-26"},{"theatre":{"id":"9306","name":"Cinemark Southpark Meadows"},"dateTime":"2017-07-26T11:40","quals":"Reserved Seating|Lounger|Closed Captioned","barg":false,"ticketURI":"http://www.fandango.com/tms.asp?t=AAUIY&m=165269&d=2017-07-26"},{"theatre":{"id":"9306","name":"Cinemark Southpark Meadows"},"dateTime":"2017-07-26T13:10","quals":"Reserved Seating|Lounger|Closed Captioned","barg":false,"ticketURI":"http://www.fandango.com/tms.asp?t=AAUIY&m=165269&d=2017-07-26"},{"theatre":{"id":"9306","name":"Cinemark Southpark Meadows"},"dateTime":"2017-07-26T14:40","quals":"Reserved Seating|Lounger|Closed Captioned","barg":false,"ticketURI":"http://www.fandango.com/tms.asp?t=AAUIY&m=165269&d=2017-07-26"},{"theatre":{"id":"9306","name":"Cinemark Southpark Meadows"},"dateTime":"2017-07-26T16:15","quals":"Reserved Seating|Lounger|Closed Captioned","barg":false,"ticketURI":"http://www.fandango.com/tms.asp?t=AAUIY&m=165269&d=2017-07-26"},{"theatre":{"id":"9306","name":"Cinemark Southpark Meadows"},"dateTime":"2017-07-26T17:45","quals":"Reserved Seating|Lounger|Closed Captioned","barg":false,"ticketURI":"http://www.fandango.com/tms.asp?t=AAUIY&m=165269&d=2017-07-26"},{"theatre":{"id":"9306","name":"Cinemark Southpark Meadows"},"dateTime":"2017-07-26T19:10","quals":"Reserved Seating|Lounger|Closed Captioned","barg":false,"ticketURI":"http://www.fandango.com/tms.asp?t=AAUIY&m=165269&d=2017-07-26"},{"theatre":{"id":"9306","name":"Cinemark Southpark Meadows"},"dateTime":"2017-07-26T20:40","quals":"Reserved Seating|Lounger|Closed Captioned","barg":false,"ticketURI":"http://www.fandango.com/tms.asp?t=AAUIY&m=165269&d=2017-07-26"},{"theatre":{"id":"9306","name":"Cinemark Southpark Meadows"},"dateTime":"2017-07-26T22:20","quals":"Reserved Seating|Lounger|Closed Captioned","barg":false,"ticketURI":"http://www.fandango.com/tms.asp?t=AAUIY&m=165269&d=2017-07-26"},{"theatre":{"id":"10569","name":"Alamo Drafthouse Slaughter Lane"},"dateTime":"2017-07-26T10:45","barg":false,"ticketURI":"http://www.fandango.com/tms.asp?t=AAWQE&m=165269&d=2017-07-26"},{"theatre":{"id":"10569","name":"Alamo Drafthouse Slaughter Lane"},"dateTime":"2017-07-26T13:50","barg":false,"ticketURI":"http://www.fandango.com/tms.asp?t=AAWQE&m=165269&d=2017-07-26"},{"theatre":{"id":"10569","name":"Alamo Drafthouse Slaughter Lane"},"dateTime":"2017-07-26T16:50","barg":false,"ticketURI":"http://www.fandango.com/tms.asp?t=AAWQE&m=165269&d=2017-07-26"}]},{"tmsId":"MV008749360000","rootId":"12746755","subType":"Feature Film","title":"Valerian and the City of a Thousand Planets","releaseYear":2017,"releaseDate":"2017-07-21","titleLang":"en","descriptionLang":"en","entityType":"Movie","genres":["Science fiction","Adventure","Action"],"longDescription":"In the 28th century, special operatives Valerian (Dane DeHaan) and Laureline work together to maintain order throughout the human territories. Under assignment from the minister of defense, the duo embarks on a mission to Alpha, an ever-expanding metropolis where diverse species gather to share knowledge and culture. When a dark force threatens the peaceful city, Valerian and Laureline must race against time to identify the menace that also jeopardizes the future of the universe.","shortDescription":"Two special operatives travel to an intergalactic city where a dark force threatens the universe.","topCast":["Dane DeHaan","Cara Delevingne","Clive Owen"],"directors":["Luc Besson"],"officialUrl":"http://valerianmovie.com/","ratings":[{"body":"Motion Picture Association of America","code":"PG-13"}],"advisories":["Adult Language","Adult Situations","Violence"],"runTime":"PT02H17M","preferredImage":{"width":"240","height":"360","caption":{"content":"Valerian and the City of a Thousand Planets (2017)","lang":"en"},"uri":"assets/p12746755_p_v5_ac.jpg","category":"Poster Art","text":"yes","primary":"true"},"showtimes":[{"theatre":{"id":"8298","name":"Regal Westgate Stadium 11"},"dateTime":"2017-07-26T11:00","quals":"Closed Captioned","barg":true,"ticketURI":"http://www.fandango.com/tms.asp?t=AANOT&m=161007&d=2017-07-26"},{"theatre":{"id":"8298","name":"Regal Westgate Stadium 11"},"dateTime":"2017-07-26T12:30","quals":"Closed Captioned","barg":true,"ticketURI":"http://www.fandango.com/tms.asp?t=AANOT&m=161007&d=2017-07-26"},{"theatre":{"id":"8298","name":"Regal Westgate Stadium 11"},"dateTime":"2017-07-26T15:00","quals":"Closed Captioned","barg":true,"ticketURI":"http://www.fandango.com/tms.asp?t=AANOT&m=161007&d=2017-07-26"},{"theatre":{"id":"8298","name":"Regal Westgate Stadium 11"},"dateTime":"2017-07-26T18:30","quals":"Closed Captioned","barg":false,"ticketURI":"http://www.fandango.com/tms.asp?t=AANOT&m=161007&d=2017-07-26"},{"theatre":{"id":"8298","name":"Regal Westgate Stadium 11"},"dateTime":"2017-07-26T20:30","quals":"Closed Captioned","barg":false,"ticketURI":"http://www.fandango.com/tms.asp?t=AANOT&m=161007&d=2017-07-26"},{"theatre":{"id":"8298","name":"Regal Westgate Stadium 11"},"dateTime":"2017-07-26T22:05","quals":"Closed Captioned","barg":false,"ticketURI":"http://www.fandango.com/tms.asp?t=AANOT&m=161007&d=2017-07-26"},{"theatre":{"id":"8498","name":"Regal Metropolitan Stadium 14"},"dateTime":"2017-07-26T12:20","quals":"Closed Captioned","barg":true,"ticketURI":"http://www.fandango.com/tms.asp?t=AALHE&m=161007&d=2017-07-26"},{"theatre":{"id":"8498","name":"Regal Metropolitan Stadium 14"},"dateTime":"2017-07-26T19:15","quals":"Closed Captioned","barg":false,"ticketURI":"http://www.fandango.com/tms.asp?t=AALHE&m=161007&d=2017-07-26"},{"theatre":{"id":"9306","name":"Cinemark Southpark Meadows"},"dateTime":"2017-07-26T11:30","quals":"Reserved Seating|Lounger|Closed Captioned","barg":false,"ticketURI":"http://www.fandango.com/tms.asp?t=AAUIY&m=161007&d=2017-07-26"},{"theatre":{"id":"9306","name":"Cinemark Southpark Meadows"},"dateTime":"2017-07-26T18:45","quals":"Reserved Seating|Lounger|Closed Captioned","barg":false,"ticketURI":"http://www.fandango.com/tms.asp?t=AAUIY&m=161007&d=2017-07-26"}]},{"tmsId":"MV009294790000","rootId":"13259415","subType":"Feature Film","title":"Baby Driver","releaseYear":2017,"releaseDate":"2017-03-11","titleLang":"en","descriptionLang":"en","entityType":"Movie","genres":["Action","Thriller","Comedy"],"longDescription":"Talented getaway driver Baby (Ansel Elgort) relies on the beat of his personal soundtrack to be the best in the game. After meeting the woman (Lily James) of his dreams, he sees a chance to ditch his shady lifestyle and make a clean break. Coerced into working for a crime boss (Kevin Spacey), Baby must face the music as a doomed heist threatens his life, love and freedom.","shortDescription":"A young getaway driver must face the music when a doomed heist threatens his life, love and freedom.","topCast":["Ansel Elgort","Kevin Spacey","Lily James"],"directors":["Edgar Wright"],"officialUrl":"http://www.babydriver-movie.com/","qualityRating":{"ratingsBody":"TMS","value":"3.5"},"ratings":[{"body":"Motion Picture Association of America","code":"R"}],"advisories":["Adult Language","Adult Situations","Graphic Violence"],"runTime":"PT01H53M","preferredImage":{"width":"240","height":"360","uri":"assets/p13259415_v_v5_ab.jpg","category":"VOD Art","text":"yes","primary":"true"},"showtimes":[{"theatre":{"id":"8298","name":"Regal Westgate Stadium 11"},"dateTime":"2017-07-26T11:30","quals":"Descriptive Video Services|Closed Captioned","barg":true,"ticketURI":"http://www.fandango.com/tms.asp?t=AANOT&m=166105&d=2017-07-26"},{"theatre":{"id":"8298","name":"Regal Westgate Stadium 11"},"dateTime":"2017-07-26T14:10","quals":"Descriptive Video Services|Closed Captioned","barg":true,"ticketURI":"http://www.fandango.com/tms.asp?t=AANOT&m=166105&d=2017-07-26"},{"theatre":{"id":"8298","name":"Regal Westgate Stadium 11"},"dateTime":"2017-07-26T16:45","quals":"Descriptive Video Services|Closed Captioned","barg":true,"ticketURI":"http://www.fandango.com/tms.asp?t=AANOT&m=166105&d=2017-07-26"},{"theatre":{"id":"8298","name":"Regal Westgate Stadium 11"},"dateTime":"2017-07-26T19:30","quals":"Descriptive Video Services|Closed Captioned","barg":false,"ticketURI":"http://www.fandango.com/tms.asp?t=AANOT&m=166105&d=2017-07-26"},{"theatre":{"id":"8298","name":"Regal Westgate Stadium 11"},"dateTime":"2017-07-26T22:30","quals":"Descriptive Video Services|Closed Captioned","barg":false,"ticketURI":"http://www.fandango.com/tms.asp?t=AANOT&m=166105&d=2017-07-26"},{"theatre":{"id":"8498","name":"Regal Metropolitan Stadium 14"},"dateTime":"2017-07-26T14:10","quals":"Descriptive Video Services|Closed Captioned","barg":true,"ticketURI":"http://www.fandango.com/tms.asp?t=AALHE&m=166105&d=2017-07-26"},{"theatre":{"id":"8498","name":"Regal Metropolitan Stadium 14"},"dateTime":"2017-07-26T17:00","quals":"Descriptive Video Services|Closed Captioned","barg":true,"ticketURI":"http://www.fandango.com/tms.asp?t=AALHE&m=166105&d=2017-07-26"},{"theatre":{"id":"8498","name":"Regal Metropolitan Stadium 14"},"dateTime":"2017-07-26T19:50","quals":"Descriptive Video Services|Closed Captioned","barg":false,"ticketURI":"http://www.fandango.com/tms.asp?t=AALHE&m=166105&d=2017-07-26"},{"theatre":{"id":"8498","name":"Regal Metropolitan Stadium 14"},"dateTime":"2017-07-26T22:40","quals":"Descriptive Video Services|Closed Captioned","barg":false,"ticketURI":"http://www.fandango.com/tms.asp?t=AALHE&m=166105&d=2017-07-26"},{"theatre":{"id":"9306","name":"Cinemark Southpark Meadows"},"dateTime":"2017-07-26T10:20","quals":"Reserved Seating|Closed Captioned|Lounger","barg":false,"ticketURI":"http://www.fandango.com/tms.asp?t=AAUIY&m=166105&d=2017-07-26"},{"theatre":{"id":"9306","name":"Cinemark Southpark Meadows"},"dateTime":"2017-07-26T13:45","quals":"Reserved Seating|Closed Captioned|Lounger","barg":false,"ticketURI":"http://www.fandango.com/tms.asp?t=AAUIY&m=166105&d=2017-07-26"},{"theatre":{"id":"9306","name":"Cinemark Southpark Meadows"},"dateTime":"2017-07-26T16:40","quals":"Reserved Seating|Closed Captioned|Lounger","barg":false,"ticketURI":"http://www.fandango.com/tms.asp?t=AAUIY&m=166105&d=2017-07-26"},{"theatre":{"id":"9306","name":"Cinemark Southpark Meadows"},"dateTime":"2017-07-26T19:30","quals":"Reserved Seating|Closed Captioned|Lounger","barg":false,"ticketURI":"http://www.fandango.com/tms.asp?t=AAUIY&m=166105&d=2017-07-26"},{"theatre":{"id":"9306","name":"Cinemark Southpark Meadows"},"dateTime":"2017-07-26T22:25","quals":"Reserved Seating|Closed Captioned|Lounger","barg":false,"ticketURI":"http://www.fandango.com/tms.asp?t=AAUIY&m=166105&d=2017-07-26"},{"theatre":{"id":"5084","name":"Alamo Drafthouse South Lamar"},"dateTime":"2017-07-26T12:10","barg":false,"ticketURI":"http://www.fandango.com/tms.asp?t=AATHS&m=166105&d=2017-07-26"},{"theatre":{"id":"5084","name":"Alamo Drafthouse South Lamar"},"dateTime":"2017-07-26T15:05","barg":false,"ticketURI":"http://www.fandango.com/tms.asp?t=AATHS&m=166105&d=2017-07-26"},{"theatre":{"id":"5084","name":"Alamo Drafthouse South Lamar"},"dateTime":"2017-07-26T18:20","barg":false,"ticketURI":"http://www.fandango.com/tms.asp?t=AATHS&m=166105&d=2017-07-26"},{"theatre":{"id":"5084","name":"Alamo Drafthouse South Lamar"},"dateTime":"2017-07-26T22:15","barg":false,"ticketURI":"http://www.fandango.com/tms.asp?t=AATHS&m=166105&d=2017-07-26"},{"theatre":{"id":"10569","name":"Alamo Drafthouse Slaughter Lane"},"dateTime":"2017-07-26T11:05","barg":false,"ticketURI":"http://www.fandango.com/tms.asp?t=AAWQE&m=166105&d=2017-07-26"},{"theatre":{"id":"10569","name":"Alamo Drafthouse Slaughter Lane"},"dateTime":"2017-07-26T14:10","barg":false,"ticketURI":"http://www.fandango.com/tms.asp?t=AAWQE&m=166105&d=2017-07-26"},{"theatre":{"id":"10569","name":"Alamo Drafthouse Slaughter Lane"},"dateTime":"2017-07-26T17:15","barg":false,"ticketURI":"http://www.fandango.com/tms.asp?t=AAWQE&m=166105&d=2017-07-26"},{"theatre":{"id":"10569","name":"Alamo Drafthouse Slaughter Lane"},"dateTime":"2017-07-26T20:15","barg":false,"ticketURI":"http://www.fandango.com/tms.asp?t=AAWQE&m=166105&d=2017-07-26"},{"theatre":{"id":"10569","name":"Alamo Drafthouse Slaughter Lane"},"dateTime":"2017-07-26T23:10","barg":false,"ticketURI":"http://www.fandango.com/tms.asp?t=AAWQE&m=166105&d=2017-07-26"}]},{"tmsId":"MV008578760000","rootId":"12608063","subType":"Feature Film","title":"Transformers: The Last Knight","releaseYear":2017,"releaseDate":"2017-06-21","titleLang":"en","descriptionLang":"en","entityType":"Movie","genres":["Action","Adventure","Science fiction","Fantasy"],"longDescription":"Humans are at war with the Transformers, and Optimus Prime is gone. The key to saving the future lies buried in the secrets of the past and the hidden history of Transformers on Earth. Now, it\'s up to the unlikely alliance of inventor Cade Yeager, Bumblebee, an English lord and an Oxford professor to save the world.","shortDescription":"Cade Yeager forms an unlikely alliance as the war between Transformers and humans threatens Earth.","topCast":["Mark Wahlberg","Anthony Hopkins","Josh Duhamel"],"directors":["Michael Bay"],"officialUrl":"http://www.transformersmovie.com/","qualityRating":{"ratingsBody":"TMS","value":"2"},"ratings":[{"body":"Motion Picture Association of America","code":"PG-13"}],"advisories":["Adult Language","Adult Situations","Violence"],"runTime":"PT02H29M","preferredImage":{"width":"240","height":"360","caption":{"content":"Transformers: The Last Knight (2017)","lang":"en"},"uri":"assets/p12608063_p_v5_ai.jpg","category":"Poster Art","text":"yes","primary":"true"},"showtimes":[{"theatre":{"id":"8498","name":"Regal Metropolitan Stadium 14"},"dateTime":"2017-07-26T12:20","quals":"Descriptive Video Services|Closed Captioned","barg":true,"ticketURI":"http://www.fandango.com/tms.asp?t=AALHE&m=159489&d=2017-07-26"},{"theatre":{"id":"8498","name":"Regal Metropolitan Stadium 14"},"dateTime":"2017-07-26T15:40","quals":"Descriptive Video Services|Closed Captioned","barg":true,"ticketURI":"http://www.fandango.com/tms.asp?t=AALHE&m=159489&d=2017-07-26"},{"theatre":{"id":"8498","name":"Regal Metropolitan Stadium 14"},"dateTime":"2017-07-26T19:00","quals":"Descriptive Video Services|Closed Captioned","barg":false,"ticketURI":"http://www.fandango.com/tms.asp?t=AALHE&m=159489&d=2017-07-26"},{"theatre":{"id":"8498","name":"Regal Metropolitan Stadium 14"},"dateTime":"2017-07-26T22:15","quals":"Closed Captioned|Descriptive Video Services","barg":false,"ticketURI":"http://www.fandango.com/tms.asp?t=AALHE&m=159489&d=2017-07-26"}]},{"tmsId":"MV008806780000","rootId":"12798844","subType":"Feature Film","title":"Spider-Man: Homecoming 3D","releaseYear":2017,"releaseDate":"2017-07-07","titleLang":"en","descriptionLang":"en","entityType":"Movie","genres":["Action","Adventure","Fantasy","Comedy"],"longDescription":"Thrilled by his experience with the Avengers, young Peter Parker returns home to live with his Aunt May. Under the watchful eye of mentor Tony Stark, Parker starts to embrace his newfound identity as Spider-Man. He also tries to return to his normal daily routine -- distracted by thoughts of proving himself to be more than just a friendly neighborhood superhero. Peter must soon put his powers to the test when the evil Vulture emerges to threaten everything that he holds dear.","shortDescription":"High school student Peter Parker embraces his new identity as Spider-Man to battle the evil Vulture.","topCast":["Tom Holland","Michael Keaton","Robert Downey Jr."],"directors":["Jon Watts"],"officialUrl":"http://www.spidermanhomecoming.com/","qualityRating":{"ratingsBody":"TMS","value":"3"},"ratings":[{"body":"Motion Picture Association of America","code":"PG-13"}],"advisories":["Adult Language","Adult Situations","Violence"],"runTime":"PT02H13M","preferredImage":{"width":"240","height":"360","caption":{"content":"Spider-Man: Homecoming -- The IMAX 2D Experience (2017)","lang":"en"},"uri":"assets/p12798844_p_v5_ac.jpg","category":"Poster Art","text":"yes"},"showtimes":[{"theatre":{"id":"8498","name":"Regal Metropolitan Stadium 14"},"dateTime":"2017-07-26T12:30","quals":"Descriptive Video Services|No Passes|Closed Captioned","barg":true,"ticketURI":"http://www.fandango.com/tms.asp?t=AALHE&m=161697&d=2017-07-26"},{"theatre":{"id":"8498","name":"Regal Metropolitan Stadium 14"},"dateTime":"2017-07-26T15:50","quals":"Descriptive Video Services|No Passes|Closed Captioned","barg":true,"ticketURI":"http://www.fandango.com/tms.asp?t=AALHE&m=161697&d=2017-07-26"},{"theatre":{"id":"8498","name":"Regal Metropolitan Stadium 14"},"dateTime":"2017-07-26T22:10","quals":"Descriptive Video Services|No Passes|Closed Captioned","barg":false,"ticketURI":"http://www.fandango.com/tms.asp?t=AALHE&m=161697&d=2017-07-26"},{"theatre":{"id":"9306","name":"Cinemark Southpark Meadows"},"dateTime":"2017-07-26T22:30","quals":"Reserved Seating|Closed Captioned|Luxury Lounger RealD 3D","barg":false,"ticketURI":"http://www.fandango.com/tms.asp?t=AAUIY&m=161697&d=2017-07-26"}]},{"tmsId":"MV008030020000","rootId":"12126545","subType":"Feature Film","title":"War for the Planet of the Apes 3D","releaseYear":2017,"releaseDate":"2017-07-14","titleLang":"en","descriptionLang":"en","entityType":"Movie","genres":["Science fiction","Action","Adventure"],"longDescription":"Caesar (Andy Serkis) and his apes are forced into a deadly conflict with an army of humans led by a ruthless colonel (Woody Harrelson). After the apes suffer unimaginable losses, Caesar wrestles with his darker instincts and begins his own mythic quest to avenge his kind. As the journey finally brings them face to face, Caesar and the colonel are pitted against each other in an epic battle that will determine the fate of both of their species and the future of the planet.","shortDescription":"A colonel leads his troops in a deadly battle against Caesar and his army of intelligent apes.","topCast":["Andy Serkis","Woody Harrelson","Steve Zahn"],"directors":["Matt Reeves"],"officialUrl":"http://www.foxmovies.com/movies/war-for-the-planet-of-the-apes","qualityRating":{"ratingsBody":"TMS","value":"3.5"},"ratings":[{"body":"Motion Picture Association of America","code":"PG-13"}],"advisories":["Adult Situations","Violence"],"runTime":"PT02H22M","preferredImage":{"width":"240","height":"360","caption":{"content":"War for the Planet of the Apes (2017)","lang":"en"},"uri":"assets/p12126545_p_v5_ac.jpg","category":"Poster Art","text":"yes","primary":"true"},"showtimes":[{"theatre":{"id":"8498","name":"Regal Metropolitan Stadium 14"},"dateTime":"2017-07-26T13:30","quals":"Descriptive Video Services|No Passes|Closed Captioned","barg":true,"ticketURI":"http://www.fandango.com/tms.asp?t=AALHE&m=154459&d=2017-07-26"},{"theatre":{"id":"8498","name":"Regal Metropolitan Stadium 14"},"dateTime":"2017-07-26T16:50","quals":"Descriptive Video Services|No Passes|Closed Captioned","barg":true,"ticketURI":"http://www.fandango.com/tms.asp?t=AALHE&m=154459&d=2017-07-26"},{"theatre":{"id":"8498","name":"Regal Metropolitan Stadium 14"},"dateTime":"2017-07-26T20:10","quals":"Descriptive Video Services|No Passes|Closed Captioned","barg":false,"ticketURI":"http://www.fandango.com/tms.asp?t=AALHE&m=154459&d=2017-07-26"},{"theatre":{"id":"9306","name":"Cinemark Southpark Meadows"},"dateTime":"2017-07-26T12:10","quals":"Reserved Seating|Closed Captioned|Luxury Lounger RealD 3D","barg":false,"ticketURI":"http://www.fandango.com/tms.asp?t=AAUIY&m=154459&d=2017-07-26"},{"theatre":{"id":"9306","name":"Cinemark Southpark Meadows"},"dateTime":"2017-07-26T15:30","quals":"Reserved Seating|Closed Captioned|Luxury Lounger RealD 3D","barg":false,"ticketURI":"http://www.fandango.com/tms.asp?t=AAUIY&m=154459&d=2017-07-26"},{"theatre":{"id":"9306","name":"Cinemark Southpark Meadows"},"dateTime":"2017-07-26T22:00","quals":"Reserved Seating|Closed Captioned|Luxury Lounger RealD 3D","barg":false,"ticketURI":"http://www.fandango.com/tms.asp?t=AAUIY&m=154459&d=2017-07-26"}]},{"tmsId":"MV008489260000","rootId":"12543972","subType":"Feature Film","title":"Wonder Woman","releaseYear":2017,"releaseDate":"2017-06-02","titleLang":"en","descriptionLang":"en","entityType":"Movie","genres":["Action","Adventure","Fantasy"],"longDescription":"Before she was Wonder Woman (Gal Gadot), she was Diana, princess of the Amazons, trained to be an unconquerable warrior. Raised on a sheltered island paradise, Diana meets an American pilot (Chris Pine) who tells her about the massive conflict that\'s raging in the outside world. Convinced that she can stop the threat, Diana leaves her home for the first time. Fighting alongside men in a war to end all wars, she finally discovers her full powers and true destiny.","shortDescription":"Wonder Woman (Gal Gadot) discovers her full powers and true destiny while fighting alongside men.","topCast":["Gal Gadot","Chris Pine","Connie Nielsen"],"directors":["Patty Jenkins"],"officialUrl":"http://wonderwomanfilm.com/","qualityRating":{"ratingsBody":"TMS","value":"3"},"ratings":[{"body":"Motion Picture Association of America","code":"PG-13"}],"advisories":["Adult Situations","Violence"],"runTime":"PT02H21M","preferredImage":{"width":"240","height":"360","uri":"assets/p12543972_v_v5_ab.jpg","category":"VOD Art","text":"yes","primary":"true"},"showtimes":[{"theatre":{"id":"8498","name":"Regal Metropolitan Stadium 14"},"dateTime":"2017-07-26T13:50","quals":"Descriptive Video Services|Closed Captioned","barg":true,"ticketURI":"http://www.fandango.com/tms.asp?t=AALHE&m=158785&d=2017-07-26"},{"theatre":{"id":"8498","name":"Regal Metropolitan Stadium 14"},"dateTime":"2017-07-26T17:10","quals":"Descriptive Video Services|Closed Captioned","barg":true,"ticketURI":"http://www.fandango.com/tms.asp?t=AALHE&m=158785&d=2017-07-26"},{"theatre":{"id":"8498","name":"Regal Metropolitan Stadium 14"},"dateTime":"2017-07-26T20:30","quals":"Descriptive Video Services|Closed Captioned","barg":false,"ticketURI":"http://www.fandango.com/tms.asp?t=AALHE&m=158785&d=2017-07-26"},{"theatre":{"id":"9306","name":"Cinemark Southpark Meadows"},"dateTime":"2017-07-26T12:30","quals":"Reserved Seating|Closed Captioned|Lounger","barg":false,"ticketURI":"http://www.fandango.com/tms.asp?t=AAUIY&m=158785&d=2017-07-26"},{"theatre":{"id":"9306","name":"Cinemark Southpark Meadows"},"dateTime":"2017-07-26T15:45","quals":"Reserved Seating|Closed Captioned|Lounger","barg":false,"ticketURI":"http://www.fandango.com/tms.asp?t=AAUIY&m=158785&d=2017-07-26"},{"theatre":{"id":"9306","name":"Cinemark Southpark Meadows"},"dateTime":"2017-07-26T19:00","quals":"Reserved Seating|Closed Captioned|Lounger","barg":false,"ticketURI":"http://www.fandango.com/tms.asp?t=AAUIY&m=158785&d=2017-07-26"},{"theatre":{"id":"9306","name":"Cinemark Southpark Meadows"},"dateTime":"2017-07-26T22:15","quals":"Reserved Seating|Closed Captioned|Lounger","barg":false,"ticketURI":"http://www.fandango.com/tms.asp?t=AAUIY&m=158785&d=2017-07-26"}]},{"tmsId":"MV009819630000","rootId":"13042513","subType":"Feature Film","title":"47 Meters Down","releaseYear":2016,"releaseDate":"2016","titleLang":"en","descriptionLang":"en","entityType":"Movie","genres":["Thriller","Horror","Adventure"],"longDescription":"Young sisters Kate and Lisa and travel to Mexico for a vacation filled with sun, fun and adventure. Lisa needs some extra persuasion when Kate suggests that they go diving in shark-infested waters. Safe in their protective cage, the thrill-seeking siblings come face to face with a group of majestic great whites. Their worst fears soon become a reality when the cage breaks away from their boat, sending them plummeting to the ocean floor with a dwindling supply of oxygen.","shortDescription":"Great white sharks circle two sisters after they become trapped in a cage on the ocean floor.","topCast":["Claire Holt","Mandy Moore","Chris J. Johnson"],"directors":["Johannes Roberts"],"qualityRating":{"ratingsBody":"TMS","value":"2.5"},"ratings":[{"body":"Motion Picture Association of America","code":"PG-13"}],"advisories":["Adult Language","Adult Situations","Violence"],"runTime":"PT01H29M","preferredImage":{"width":"240","height":"360","caption":{"content":"47 Meters Down (2016)","lang":"en"},"uri":"assets/p13042513_p_v5_ad.jpg","category":"Poster Art","text":"yes","primary":"true"},"showtimes":[{"theatre":{"id":"8498","name":"Regal Metropolitan Stadium 14"},"dateTime":"2017-07-26T14:40","quals":"Closed Captioned|Descriptive Video Services","barg":true,"ticketURI":"http://www.fandango.com/tms.asp?t=AALHE&m=171468&d=2017-07-26"},{"theatre":{"id":"8498","name":"Regal Metropolitan Stadium 14"},"dateTime":"2017-07-26T17:00","quals":"Descriptive Video Services|Closed Captioned","barg":true,"ticketURI":"http://www.fandango.com/tms.asp?t=AALHE&m=171468&d=2017-07-26"},{"theatre":{"id":"8498","name":"Regal Metropolitan Stadium 14"},"dateTime":"2017-07-26T20:15","quals":"Descriptive Video Services|Closed Captioned","barg":false,"ticketURI":"http://www.fandango.com/tms.asp?t=AALHE&m=171468&d=2017-07-26"},{"theatre":{"id":"8498","name":"Regal Metropolitan Stadium 14"},"dateTime":"2017-07-26T22:35","quals":"Descriptive Video Services|Closed Captioned","barg":false,"ticketURI":"http://www.fandango.com/tms.asp?t=AALHE&m=171468&d=2017-07-26"}]},{"tmsId":"MV009757350000","rootId":"13746856","subType":"Feature Film","title":"Wish Upon","releaseYear":2017,"releaseDate":"2017-07-14","titleLang":"en","descriptionLang":"en","entityType":"Movie","genres":["Horror","Thriller"],"longDescription":"Jonathan Shannon (Ryan Phillippe) gives his 17-year-old daughter Clare (Joey King) an old music box that promises to grant its owner seven wishes. Skeptical at first, Clare becomes seduced by its dark powers when her life starts to radically improve with each wish. Everything seems perfect until she realizes that every wish she makes causes the people who are closest to her to die in violent and elaborate ways.","shortDescription":"An old music box that grants wishes causes a teen\'s loved ones to die in violent and elaborate ways.","topCast":["Joey King","Ryan Phillippe","Ki Hong Lee"],"directors":["John R. Leonetti"],"officialUrl":"http://www.wishuponmovie.com/","ratings":[{"body":"Motion Picture Association of America","code":"PG-13"}],"advisories":["Adult Language","Adult Situations","Violence"],"runTime":"PT01H29M","preferredImage":{"width":"240","height":"360","caption":{"content":"Wish Upon (2017)","lang":"en"},"uri":"assets/p13746856_p_v5_ac.jpg","category":"Poster Art","text":"yes","primary":"true"},"showtimes":[{"theatre":{"id":"8498","name":"Regal Metropolitan Stadium 14"},"dateTime":"2017-07-26T14:50","quals":"Descriptive Video Services|Closed Captioned","barg":true,"ticketURI":"http://www.fandango.com/tms.asp?t=AALHE&m=170418&d=2017-07-26"},{"theatre":{"id":"8498","name":"Regal Metropolitan Stadium 14"},"dateTime":"2017-07-26T17:20","quals":"Descriptive Video Services|Closed Captioned","barg":true,"ticketURI":"http://www.fandango.com/tms.asp?t=AALHE&m=170418&d=2017-07-26"},{"theatre":{"id":"8498","name":"Regal Metropolitan Stadium 14"},"dateTime":"2017-07-26T20:00","quals":"Descriptive Video Services|Closed Captioned","barg":false,"ticketURI":"http://www.fandango.com/tms.asp?t=AALHE&m=170418&d=2017-07-26"},{"theatre":{"id":"8498","name":"Regal Metropolitan Stadium 14"},"dateTime":"2017-07-26T22:30","quals":"Descriptive Video Services|Closed Captioned","barg":false,"ticketURI":"http://www.fandango.com/tms.asp?t=AALHE&m=170418&d=2017-07-26"},{"theatre":{"id":"9306","name":"Cinemark Southpark Meadows"},"dateTime":"2017-07-26T16:00","quals":"Reserved Seating|Closed Captioned|Lounger","barg":false,"ticketURI":"http://www.fandango.com/tms.asp?t=AAUIY&m=170418&d=2017-07-26"},{"theatre":{"id":"9306","name":"Cinemark Southpark Meadows"},"dateTime":"2017-07-26T18:50","quals":"Reserved Seating|Closed Captioned|Lounger","barg":false,"ticketURI":"http://www.fandango.com/tms.asp?t=AAUIY&m=170418&d=2017-07-26"},{"theatre":{"id":"9306","name":"Cinemark Southpark Meadows"},"dateTime":"2017-07-26T21:15","quals":"Reserved Seating|Closed Captioned|Lounger","barg":false,"ticketURI":"http://www.fandango.com/tms.asp?t=AAUIY&m=170418&d=2017-07-26"}]},{"tmsId":"MV009504490000","rootId":"12746755","subType":"Feature Film","title":"Valerian and the City of a Thousand Planets 3D","releaseYear":2017,"releaseDate":"2017-07-21","titleLang":"en","descriptionLang":"en","entityType":"Movie","genres":["Adventure","Action","Science fiction"],"longDescription":"In the 28th century, special operatives Valerian (Dane DeHaan) and Laureline work together to maintain order throughout the human territories. Under assignment from the minister of defense, the duo embarks on a mission to Alpha, an ever-expanding metropolis where diverse species gather to share knowledge and culture. When a dark force threatens the peaceful city, Valerian and Laureline must race against time to identify the menace that also jeopardizes the future of the universe.","shortDescription":"Two special operatives travel to an intergalactic city where a dark force threatens the universe.","topCast":["Dane DeHaan","Cara Delevingne","Clive Owen"],"directors":["Luc Besson"],"officialUrl":"http://valerianmovie.com/","ratings":[{"body":"Motion Picture Association of America","code":"PG-13"}],"advisories":["Adult Language","Adult Situations","Violence"],"runTime":"PT02H17M","preferredImage":{"width":"240","height":"360","caption":{"content":"Valerian and the City of a Thousand Planets 3D (2017)","lang":"en"},"uri":"assets/p12746755_p_v5_ab.jpg","category":"Poster Art","text":"yes"},"showtimes":[{"theatre":{"id":"8498","name":"Regal Metropolitan Stadium 14"},"dateTime":"2017-07-26T15:40","quals":"No Passes|Closed Captioned","barg":true,"ticketURI":"http://www.fandango.com/tms.asp?t=AALHE&m=168964&d=2017-07-26"},{"theatre":{"id":"8498","name":"Regal Metropolitan Stadium 14"},"dateTime":"2017-07-26T22:30","quals":"No Passes|Closed Captioned","barg":false,"ticketURI":"http://www.fandango.com/tms.asp?t=AALHE&m=168964&d=2017-07-26"},{"theatre":{"id":"9306","name":"Cinemark Southpark Meadows"},"dateTime":"2017-07-26T15:20","quals":"Reserved Seating|Luxury Lounger RealD 3D|Closed Captioned","barg":false,"ticketURI":"http://www.fandango.com/tms.asp?t=AAUIY&m=168964&d=2017-07-26"},{"theatre":{"id":"9306","name":"Cinemark Southpark Meadows"},"dateTime":"2017-07-26T22:10","quals":"Reserved Seating|Luxury Lounger RealD 3D|Closed Captioned","barg":false,"ticketURI":"http://www.fandango.com/tms.asp?t=AAUIY&m=168964&d=2017-07-26"}]},{"tmsId":"MV010149560000","rootId":"14276499","subType":"Feature Film","title":"The Ancient Magus\' Bride: Those Awaiting a Star Part 3","releaseYear":2017,"releaseDate":"2017","titleLang":"en","descriptionLang":"en","entityType":"Movie","genres":["Fantasy","Anime"],"shortDescription":"A human girl who has magical talents becomes a sorcerer\'s apprentice and fiancee.","longDescription":"A human girl who has magical talents becomes a sorcerer\'s apprentice and fiancee.","topCast":["Takahiro Sakurai","Koki Uchiyama","Ry\xc3\xb4ta Takeuchi"],"directors":["Norihiro Naganuma"],"advisories":["Adult Situations"],"animation":"Anime","preferredImage":{"uri":"tvbanners/generic/generic_tvbanners_v5.png"},"showtimes":[{"theatre":{"id":"8498","name":"Regal Metropolitan Stadium 14"},"dateTime":"2017-07-26T19:00","quals":"Advance Tickets Available|Sub-Titled","barg":false,"ticketURI":"http://www.fandango.com/tms.asp?t=AALHE&m=175258&d=2017-07-26"}]},{"tmsId":"MV008131280000","rootId":"12216968","subType":"Feature Film","title":"Cars 3","releaseYear":2017,"releaseDate":"2017-06-16","titleLang":"en","descriptionLang":"en","entityType":"Movie","genres":["Comedy","Adventure","Animated","Children"],"audience":"Children","longDescription":"Blindsided by a new generation of blazing-fast cars, the legendary Lighting McQueen finds himself pushed out of the sport that he loves. Hoping to get back in the game, he turns to Cruz Ramirez, an eager young technician who has her own plans for winning. With inspiration from the Fabulous Hudson Hornet and a few unexpected turns, No. 95 prepares to compete on Piston Cup Racing\'s biggest stage.","shortDescription":"The legendary Lightning McQueen prepares to compete on Piston Cup Racing\'s biggest stage.","topCast":["Owen Wilson","Cristela Alonzo","Armie Hammer"],"directors":["Brian Fee"],"officialUrl":"http://movies.disney.com/cars-3","qualityRating":{"ratingsBody":"TMS","value":"2.5"},"ratings":[{"body":"Motion Picture Association of America","code":"G"}],"runTime":"PT01H49M","animation":"Animated","preferredImage":{"width":"240","height":"360","caption":{"content":"Cars 3 (2017)","lang":"en"},"uri":"assets/p12216968_p_v5_ad.jpg","category":"Poster Art","text":"yes","primary":"true"},"showtimes":[{"theatre":{"id":"9306","name":"Cinemark Southpark Meadows"},"dateTime":"2017-07-26T10:40","quals":"Reserved Seating|Closed Captioned|Lounger","barg":false,"ticketURI":"http://www.fandango.com/tms.asp?t=AAUIY&m=155973&d=2017-07-26"},{"theatre":{"id":"9306","name":"Cinemark Southpark Meadows"},"dateTime":"2017-07-26T13:20","quals":"Reserved Seating|Closed Captioned|Lounger","barg":false,"ticketURI":"http://www.fandango.com/tms.asp?t=AAUIY&m=155973&d=2017-07-26"}]},{"tmsId":"MV009807850000","rootId":"13816071","subType":"Feature Film","title":"The Beguiled","releaseYear":2017,"releaseDate":"2017-05-24","titleLang":"en","descriptionLang":"en","entityType":"Movie","genres":["Thriller","Historical drama"],"longDescription":"Cpl. John McBurney is an injured Union soldier who finds himself on the run as a deserter during the Civil War. He seeks refuge at an all-female Southern boarding school where the teachers and students seem more than willing to help. Soon, sexual tensions lead to dangerous rivalries as the women tend to his wounded leg while offering him comfort and companionship.","shortDescription":"Tensions and rivalries rise when an injured Union deserter arrives at an all-female Southern school.","topCast":["Colin Farrell","Nicole Kidman","Kirsten Dunst"],"directors":["Sofia Coppola"],"officialUrl":"http://www.focusfeatures.com/thebeguiled","qualityRating":{"ratingsBody":"TMS","value":"3"},"ratings":[{"body":"Motion Picture Association of America","code":"R"}],"advisories":["Adult Language","Adult Situations","Violence"],"runTime":"PT01H34M","preferredImage":{"width":"240","height":"360","caption":{"content":"The Beguiled (2017)","lang":"en"},"uri":"assets/p13816071_p_v5_ab.jpg","category":"Poster Art","text":"yes","primary":"true"},"showtimes":[{"theatre":{"id":"5084","name":"Alamo Drafthouse South Lamar"},"dateTime":"2017-07-26T12:25","barg":false,"ticketURI":"http://www.fandango.com/tms.asp?t=AATHS&m=171076&d=2017-07-26"},{"theatre":{"id":"5084","name":"Alamo Drafthouse South Lamar"},"dateTime":"2017-07-26T15:00","barg":false,"ticketURI":"http://www.fandango.com/tms.asp?t=AATHS&m=171076&d=2017-07-26"},{"theatre":{"id":"5084","name":"Alamo Drafthouse South Lamar"},"dateTime":"2017-07-26T22:45","barg":false,"ticketURI":"http://www.fandango.com/tms.asp?t=AATHS&m=171076&d=2017-07-26"}]},{"tmsId":"MV009866910000","rootId":"13898074","subType":"Feature Film","title":"A Ghost Story","releaseYear":2017,"releaseDate":"2017-01-22","titleLang":"en","descriptionLang":"en","entityType":"Movie","genres":["Drama","Fantasy","Romance"],"longDescription":"A passionate young couple, unexpectedly separated by a shocking loss, discover an eternal connection and a love that is infinite.","shortDescription":"A couple separated by a shocking loss discover an eternal connection and a love that is infinite.","topCast":["Casey Affleck","Rooney Mara","Kenneisha Thompson"],"directors":["David Lowery"],"officialUrl":"https://a24films.com/films/a-ghost-story","qualityRating":{"ratingsBody":"TMS","value":"3.5"},"ratings":[{"body":"Motion Picture Association of America","code":"R"}],"advisories":["Adult Language","Adult Situations"],"runTime":"PT01H30M","preferredImage":{"width":"240","height":"360","caption":{"content":"A Ghost Story (2017)","lang":"en"},"uri":"assets/p13898074_p_v5_aa.jpg","category":"Poster Art","text":"yes","primary":"true"},"showtimes":[{"theatre":{"id":"5084","name":"Alamo Drafthouse South Lamar"},"dateTime":"2017-07-26T13:20","barg":false,"ticketURI":"http://www.fandango.com/tms.asp?t=AATHS&m=171923&d=2017-07-26"},{"theatre":{"id":"5084","name":"Alamo Drafthouse South Lamar"},"dateTime":"2017-07-26T15:50","barg":false,"ticketURI":"http://www.fandango.com/tms.asp?t=AATHS&m=171923&d=2017-07-26"},{"theatre":{"id":"5084","name":"Alamo Drafthouse South Lamar"},"dateTime":"2017-07-26T18:25","barg":false,"ticketURI":"http://www.fandango.com/tms.asp?t=AATHS&m=171923&d=2017-07-26"},{"theatre":{"id":"5084","name":"Alamo Drafthouse South Lamar"},"dateTime":"2017-07-26T21:15","barg":false,"ticketURI":"http://www.fandango.com/tms.asp?t=AATHS&m=171923&d=2017-07-26"}]},{"tmsId":"MV009303910000","rootId":"13268055","subType":"Feature Film","title":"The B-Side: Elsa Dorfman\'s Portrait Photography","releaseYear":2016,"releaseDate":"2016-09-12","titleLang":"en","descriptionLang":"en","entityType":"Movie","genres":["Documentary"],"longDescription":"A profile of celebrated portrait photographer Elsa Dorfman, whose friends and subjects include Allen Ginsberg and Bob Dylan.","shortDescription":"Filmmaker Errol Morris examines the life and work of portrait photographer Elsa Dorfman.","topCast":["Elsa Dorfman"],"directors":["Errol Morris"],"qualityRating":{"ratingsBody":"TMS","value":"3.5"},"ratings":[{"body":"Motion Picture Association of America","code":"R"}],"advisories":["Adult Language","Adult Situations","Nudity"],"runTime":"PT01H16M","preferredImage":{"width":"240","height":"360","caption":{"content":"The B-Side: Elsa Dorfman\'s Portrait Photography (2016)","lang":"en"},"uri":"assets/p13268055_p_v5_ab.jpg","category":"Poster Art","text":"yes","primary":"true"},"showtimes":[{"theatre":{"id":"5084","name":"Alamo Drafthouse South Lamar"},"dateTime":"2017-07-26T13:50","barg":false,"ticketURI":"http://www.fandango.com/tms.asp?t=AATHS&m=166345&d=2017-07-26"},{"theatre":{"id":"5084","name":"Alamo Drafthouse South Lamar"},"dateTime":"2017-07-26T16:15","barg":false,"ticketURI":"http://www.fandango.com/tms.asp?t=AATHS&m=166345&d=2017-07-26"},{"theatre":{"id":"5084","name":"Alamo Drafthouse South Lamar"},"dateTime":"2017-07-26T18:40","barg":false,"ticketURI":"http://www.fandango.com/tms.asp?t=AATHS&m=166345&d=2017-07-26"},{"theatre":{"id":"5084","name":"Alamo Drafthouse South Lamar"},"dateTime":"2017-07-26T21:05","barg":false,"ticketURI":"http://www.fandango.com/tms.asp?t=AATHS&m=166345&d=2017-07-26"}]},{"tmsId":"MV009941760000","rootId":"13982101","subType":"Feature Film","title":"Beatriz at Dinner","releaseYear":2017,"releaseDate":"2017-01-23","titleLang":"en","descriptionLang":"en","entityType":"Movie","genres":["Dark comedy"],"longDescription":"Beatriz is a Los Angeles massage therapist and holistic healer who drives to the seaside mansion of her client Cathy. When her old Volkswagen breaks down, she receives a friendly invitation from Cathy to stay for a seemingly innocent business dinner. As the guests arrive and the wine starts to flow, Beatriz finds herself in an escalating war of words with Doug Strutt, a ruthless real estate mogul who cares more about money than people.","shortDescription":"A holistic healer clashes with a ruthless real estate mogul at a client\'s dinner party.","topCast":["Salma Hayek","John Lithgow","Connie Britton"],"directors":["Miguel Arteta"],"officialUrl":"http://www.beatrizatdinnermovie.com/","qualityRating":{"ratingsBody":"TMS","value":"3"},"ratings":[{"body":"Motion Picture Association of America","code":"R"}],"advisories":["Adult Language","Adult Situations","Violence"],"runTime":"PT01H23M","preferredImage":{"width":"240","height":"360","uri":"assets/p13982101_v_v5_aa.jpg","category":"VOD Art","text":"yes","primary":"true"},"showtimes":[{"theatre":{"id":"5084","name":"Alamo Drafthouse South Lamar"},"dateTime":"2017-07-26T15:45","barg":false,"ticketURI":"http://www.fandango.com/tms.asp?t=AATHS&m=172588&d=2017-07-26"},{"theatre":{"id":"5084","name":"Alamo Drafthouse South Lamar"},"dateTime":"2017-07-26T21:00","barg":false,"ticketURI":"http://www.fandango.com/tms.asp?t=AATHS&m=172588&d=2017-07-26"}]},{"tmsId":"MV000781450000","rootId":"23609","subType":"Feature Film","title":"The Iron Giant","releaseYear":1999,"releaseDate":"1999-07-31","titleLang":"en","descriptionLang":"en","entityType":"Movie","genres":["Adventure","Fantasy","Animated","Children"],"audience":"Children","longDescription":"In this animated adaptation of Ted Hughes\' Cold War fable, a giant alien robot (Vin Diesel) crash-lands near the small town of Rockwell, Maine, in 1957. Exploring the area, a local 9-year-old boy, Hogarth, discovers the robot, and soon forms an unlikely friendship with him. When a paranoid government agent, Kent Mansley, becomes determined to destroy the robot, Hogarth and beatnik Dean McCoppin (Harry Connick Jr.) must do what they can to save the misunderstood machine.","shortDescription":"A Maine boy befriends a gentle, 50-foot robot with an insatiable appetite for metal.","topCast":["Jennifer Aniston","Eli Marienthal","Harry Connick Jr."],"directors":["Brad Bird"],"officialUrl":"http://theirongiantmovie.com/","qualityRating":{"ratingsBody":"TMS","value":"3.5"},"ratings":[{"body":"Motion Picture Association of America","code":"PG"}],"advisories":["Adult Language","Adult Situations"],"runTime":"PT01H26M","animation":"Animated","preferredImage":{"width":"240","height":"360","uri":"assets/p23609_v_v5_ag.jpg","category":"VOD Art","text":"yes","primary":"true"},"showtimes":[{"theatre":{"id":"10569","name":"Alamo Drafthouse Slaughter Lane"},"dateTime":"2017-07-26T10:15","quals":"A.M.","barg":false,"ticketURI":"http://www.fandango.com/tms.asp?t=AAWQE&m=20146&d=2017-07-26"}]},{"tmsId":"EV000007850004","rootId":"14258795","subType":"Theatre Event","title":"Rowdy Girls Trip","titleLang":"en","entityType":"Movie","preferredImage":{"uri":"tvbanners/generic/generic_tvbanners_v5.png"},"showtimes":[{"theatre":{"id":"10569","name":"Alamo Drafthouse Slaughter Lane"},"dateTime":"2017-07-26T19:35","barg":false,"ticketURI":"http://www.fandango.com/tms.asp?t=AAWQE&m=175101&d=2017-07-26"},{"theatre":{"id":"10569","name":"Alamo Drafthouse Slaughter Lane"},"dateTime":"2017-07-26T22:40","barg":false,"ticketURI":"http://www.fandango.com/tms.asp?t=AAWQE&m=175101&d=2017-07-26"}]}]'
p30
sS'encoding'
p31
S'UTF-8'
p32
sS'url'
p33
Vhttp://data.tmsapi.com/v1.1/movies/showings?startDate=2017-07-26&api_key=t6ubhgkku8gu397wbnpjkb4j&zip=78745
p34
sS'status_code'
p35
I200
sS'request'
p36
g0
(crequests.models
PreparedRequest
p37
g2
Ntp38
Rp39
(dp40
S'body'
p41
Nsg33
S'http://data.tmsapi.com/v1.1/movies/showings?startDate=2017-07-26&api_key=t6ubhgkku8gu397wbnpjkb4j&zip=78745'
p42
sS'hooks'
p43
(dp44
S'response'
p45
(lp46
ssS'headers'
p47
g0
(crequests.structures
CaseInsensitiveDict
p48
g2
Ntp49
Rp50
(dp51
S'_store'
p52
curllib3.packages.ordered_dict
OrderedDict
p53
((lp54
(lp55
S'connection'
p56
a(S'Connection'
p57
S'keep-alive'
p58
tp59
aa(lp60
S'accept-encoding'
p61
a(S'Accept-Encoding'
p62
S'gzip, deflate'
p63
tp64
aa(lp65
S'accept'
p66
a(S'Accept'
p67
S'*/*'
p68
tp69
aa(lp70
S'user-agent'
p71
a(S'User-Agent'
p72
S'python-requests/2.18.1'
p73
tp74
aatp75
Rp76
sbsS'_body_position'
p77
Nsg27
g0
(g7
g2
Ntp78
Rp79
(dp80
g11
I1501003509
sg12
(icookielib
DefaultCookiePolicy
p81
(dp82
g15
I01
sg16
I0
sg17
Nsg18
Nsg19
I00
sg20
I00
sg11
I1501003509
sg21
I00
sg22
I00
sg23
I00
sg24
I00
sg25
(tsg26
I01
sbsg27
(dp83
sbsS'method'
p84
S'GET'
p85
sbsS'elapsed'
p86
cdatetime
timedelta
p87
(I0
I0
I598679
tp88
Rp89
sg47
g0
(g48
g2
Ntp90
Rp91
(dp92
g52
g53
((lp93
(lp94
S'cache-control'
p95
a(S'Cache-Control'
p96
S'max-age=880'
p97
tp98
aa(lp99
S'content-encoding'
p100
a(S'Content-Encoding'
p101
S'gzip'
p102
tp103
aa(lp104
S'content-type'
p105
a(S'Content-Type'
p106
S'application/json;charset=UTF-8'
p107
tp108
aa(lp109
S'date'
p110
a(S'Date'
p111
S'Tue, 25 Jul 2017 17:24:49 GMT'
p112
tp113
aa(lp114
S'server'
p115
a(S'Server'
p116
S'Mashery Proxy'
p117
tp118
aa(lp119
S'vary'
p120
a(S'Vary'
p121
S'Accept-Encoding'
p122
tp123
aa(lp124
S'x-mashery-responder'
p125
a(S'X-Mashery-Responder'
p126
S'prod-j-worker-us-west-1b-70.mashery.com'
p127
tp128
aa(lp129
S'x-powered-by'
p130
a(S'X-Powered-By'
p131
S'PHP/5.5.9-1ubuntu4.19'
p132
tp133
aa(lp134
S'transfer-encoding'
p135
a(S'transfer-encoding'
p136
S'chunked'
p137
tp138
aa(lp139
S'connection'
p140
a(S'Connection'
p141
S'keep-alive'
p142
tp143
aatp144
Rp145
sbsS'reason'
p146
S'OK'
p147
sS'history'
p148
(lp149
sb.