ccopy_reg
_reconstructor
p0
(crequests.models
Response
p1
c__builtin__
object
p2
Ntp3
Rp4
(dp5
S'cookies'
p6
g0
(crequests.cookies
RequestsCookieJar
p7
g2
Ntp8
Rp9
(dp10
S'_now'
p11
I1499704827
sS'_policy'
p12
(icookielib
DefaultCookiePolicy
p13
(dp14
S'strict_rfc2965_unverifiable'
p15
I01
sS'strict_ns_domain'
p16
I0
sS'_allowed_domains'
p17
NsS'rfc2109_as_netscape'
p18
NsS'rfc2965'
p19
I00
sS'strict_domain'
p20
I00
sg11
I1499704827
sS'strict_ns_set_path'
p21
I00
sS'strict_ns_unverifiable'
p22
I00
sS'strict_ns_set_initial_dollar'
p23
I00
sS'hide_cookie2'
p24
I00
sS'_blocked_domains'
p25
(tsS'netscape'
p26
I01
sbsS'_cookies'
p27
(dp28
sbsS'_content'
p29
S'{"errorCode":1002,"errorMessage":"invalid_parameter_value"}'
p30
sS'encoding'
p31
S'UTF-8'
p32
sS'url'
p33
Vhttp://data.tmsapi.com/v1.1/movies/showings?startDate=2017-07-10&api_key=t6ubhgkku8gu397wbnpjkb4j
p34
sS'status_code'
p35
I400
sS'request'
p36
g0
(crequests.models
PreparedRequest
p37
g2
Ntp38
Rp39
(dp40
S'body'
p41
Nsg33
S'http://data.tmsapi.com/v1.1/movies/showings?startDate=2017-07-10&api_key=t6ubhgkku8gu397wbnpjkb4j'
p42
sS'hooks'
p43
(dp44
S'response'
p45
(lp46
ssS'headers'
p47
g0
(crequests.structures
CaseInsensitiveDict
p48
g2
Ntp49
Rp50
(dp51
S'_store'
p52
curllib3.packages.ordered_dict
OrderedDict
p53
((lp54
(lp55
S'connection'
p56
a(S'Connection'
p57
S'keep-alive'
p58
tp59
aa(lp60
S'accept-encoding'
p61
a(S'Accept-Encoding'
p62
S'gzip, deflate'
p63
tp64
aa(lp65
S'accept'
p66
a(S'Accept'
p67
S'*/*'
p68
tp69
aa(lp70
S'user-agent'
p71
a(S'User-Agent'
p72
S'python-requests/2.18.1'
p73
tp74
aatp75
Rp76
sbsS'_body_position'
p77
Nsg27
g0
(g7
g2
Ntp78
Rp79
(dp80
g11
I1499704827
sg12
(icookielib
DefaultCookiePolicy
p81
(dp82
g15
I01
sg16
I0
sg17
Nsg18
Nsg19
I00
sg20
I00
sg11
I1499704827
sg21
I00
sg22
I00
sg23
I00
sg24
I00
sg25
(tsg26
I01
sbsg27
(dp83
sbsS'method'
p84
S'GET'
p85
sbsS'elapsed'
p86
cdatetime
timedelta
p87
(I0
I0
I198869
tp88
Rp89
sg47
g0
(g48
g2
Ntp90
Rp91
(dp92
g52
g53
((lp93
(lp94
S'cache-control'
p95
a(S'Cache-Control'
p96
S'no-cache,max-age=0'
p97
tp98
aa(lp99
S'content-type'
p100
a(S'Content-Type'
p101
S'application/json;charset=UTF-8'
p102
tp103
aa(lp104
S'date'
p105
a(S'Date'
p106
S'Mon, 10 Jul 2017 16:40:27 GMT'
p107
tp108
aa(lp109
S'server'
p110
a(S'Server'
p111
S'Apache'
p112
tp113
aa(lp114
S'x-mashery-responder'
p115
a(S'X-Mashery-Responder'
p116
S'prod-j-worker-us-west-1c-65.mashery.com'
p117
tp118
aa(lp119
S'x-powered-by'
p120
a(S'X-Powered-By'
p121
S'PHP/5.5.9-1ubuntu4.14'
p122
tp123
aa(lp124
S'transfer-encoding'
p125
a(S'transfer-encoding'
p126
S'chunked'
p127
tp128
aa(lp129
S'connection'
p130
a(S'Connection'
p131
S'keep-alive'
p132
tp133
aatp134
Rp135
sbsS'reason'
p136
S'Bad Request'
p137
sS'history'
p138
(lp139
sb.